   1               		.file	"WString.cpp"
   2               	__SREG__ = 0x3f
   3               	__SP_H__ = 0x3e
   4               	__SP_L__ = 0x3d
   5               	__CCP__  = 0x34
   6               	__tmp_reg__ = 0
   7               	__zero_reg__ = 1
   8               		.global __do_copy_data
   9               		.global __do_clear_bss
  17               	.Ltext0:
  18               	.global	_ZNK6String6charAtEj
  20               	_ZNK6String6charAtEj:
  21               	.LFB136:
  22               	.LM1:
  23               	.LVL0:
  24               	/* prologue: function */
  25               	/* frame size = 0 */
  26 0000 FC01      		movw r30,r24
  27               	.LBB86:
  28               	.LBB87:
  29               	.LM2:
  30 0002 8481      		ldd r24,Z+4
  31 0004 9581      		ldd r25,Z+5
  32               	.LVL1:
  33 0006 6817      		cp r22,r24
  34 0008 7907      		cpc r23,r25
  35 000a 00F4      		brsh .L2
  36 000c 0190      		ld __tmp_reg__,Z+
  37 000e F081      		ld r31,Z
  38 0010 E02D      		mov r30,__tmp_reg__
  39               	.LVL2:
  40 0012 3097      		sbiw r30,0
  41 0014 01F0      		breq .L2
  42               	.LM3:
  43 0016 E60F      		add r30,r22
  44 0018 F71F      		adc r31,r23
  45 001a 8081      		ld r24,Z
  46 001c 0895      		ret
  47               	.LVL3:
  48               	.L2:
  49 001e 80E0      		ldi r24,lo8(0)
  50               	.LBE87:
  51               	.LBE86:
  52               	.LM4:
  53 0020 0895      		ret
  54               	.LFE136:
  56               	.global	_ZN6String9setCharAtEjc
  58               	_ZN6String9setCharAtEjc:
  59               	.LFB137:
  60               	.LM5:
  61               	.LVL4:
  62               	/* prologue: function */
  63               	/* frame size = 0 */
  64 0022 FC01      		movw r30,r24
  65               	.LM6:
  66 0024 8481      		ldd r24,Z+4
  67 0026 9581      		ldd r25,Z+5
  68               	.LVL5:
  69 0028 6817      		cp r22,r24
  70 002a 7907      		cpc r23,r25
  71 002c 00F4      		brsh .L7
  72 002e 0190      		ld __tmp_reg__,Z+
  73 0030 F081      		ld r31,Z
  74 0032 E02D      		mov r30,__tmp_reg__
  75               	.LVL6:
  76 0034 E60F      		add r30,r22
  77 0036 F71F      		adc r31,r23
  78 0038 4083      		st Z,r20
  79               	.LVL7:
  80               	.L7:
  81 003a 0895      		ret
  82               	.LFE137:
  84               	.global	_ZN6StringixEj
  86               	_ZN6StringixEj:
  87               	.LFB138:
  88               	.LM7:
  89               	.LVL8:
  90               	/* prologue: function */
  91               	/* frame size = 0 */
  92 003c FC01      		movw r30,r24
  93 003e 9B01      		movw r18,r22
  94               	.LBB88:
  95               	.LM8:
  96 0040 8481      		ldd r24,Z+4
  97 0042 9581      		ldd r25,Z+5
  98               	.LVL9:
  99 0044 6817      		cp r22,r24
 100 0046 7907      		cpc r23,r25
 101 0048 00F4      		brsh .L9
 102 004a 6081      		ld r22,Z
 103 004c 7181      		ldd r23,Z+1
 104               	.LVL10:
 105 004e 6115      		cp r22,__zero_reg__
 106 0050 7105      		cpc r23,__zero_reg__
 107 0052 01F4      		brne .L10
 108               	.LVL11:
 109               	.L9:
 110               	.LM9:
 111 0054 1092 0000 		sts _ZZN6StringixEjE19dummy_writable_char,__zero_reg__
 112 0058 60E0      		ldi r22,lo8(_ZZN6StringixEjE19dummy_writable_char)
 113 005a 70E0      		ldi r23,hi8(_ZZN6StringixEjE19dummy_writable_char)
 114 005c 00C0      		rjmp .L11
 115               	.L10:
 116               	.LM10:
 117 005e 620F      		add r22,r18
 118 0060 731F      		adc r23,r19
 119               	.L11:
 120               	.LBE88:
 121               	.LM11:
 122 0062 CB01      		movw r24,r22
 123               	/* epilogue start */
 124 0064 0895      		ret
 125               	.LFE138:
 127               	.global	_ZNK6StringixEj
 129               	_ZNK6StringixEj:
 130               	.LFB139:
 131               	.LM12:
 132               	.LVL12:
 133               	/* prologue: function */
 134               	/* frame size = 0 */
 135 0066 FC01      		movw r30,r24
 136               	.LM13:
 137 0068 8481      		ldd r24,Z+4
 138 006a 9581      		ldd r25,Z+5
 139               	.LVL13:
 140 006c 6817      		cp r22,r24
 141 006e 7907      		cpc r23,r25
 142 0070 00F4      		brsh .L14
 143 0072 0190      		ld __tmp_reg__,Z+
 144 0074 F081      		ld r31,Z
 145 0076 E02D      		mov r30,__tmp_reg__
 146               	.LVL14:
 147 0078 3097      		sbiw r30,0
 148 007a 01F0      		breq .L14
 149               	.LM14:
 150 007c E60F      		add r30,r22
 151 007e F71F      		adc r31,r23
 152 0080 8081      		ld r24,Z
 153 0082 0895      		ret
 154               	.LVL15:
 155               	.L14:
 156 0084 80E0      		ldi r24,lo8(0)
 157               	.LM15:
 158 0086 0895      		ret
 159               	.LFE139:
 161               	.global	_ZN6String7replaceEcc
 163               	_ZN6String7replaceEcc:
 164               	.LFB150:
 165               	.LM16:
 166               	.LVL16:
 167               	/* prologue: function */
 168               	/* frame size = 0 */
 169 0088 FC01      		movw r30,r24
 170               	.LBB89:
 171               	.LM17:
 172 008a 0190      		ld __tmp_reg__,Z+
 173 008c F081      		ld r31,Z
 174 008e E02D      		mov r30,__tmp_reg__
 175               	.LVL17:
 176 0090 3097      		sbiw r30,0
 177 0092 01F4      		brne .L23
 178 0094 0895      		ret
 179               	.LVL18:
 180               	.L21:
 181               	.LBB90:
 182               	.LM18:
 183 0096 8617      		cp r24,r22
 184 0098 01F4      		brne .L20
 185 009a 4083      		st Z,r20
 186               	.L20:
 187               	.LM19:
 188 009c 3196      		adiw r30,1
 189               	.LVL19:
 190               	.L23:
 191 009e 8081      		ld r24,Z
 192               	.LVL20:
 193 00a0 8823      		tst r24
 194 00a2 01F4      		brne .L21
 195 00a4 0895      		ret
 196               	.LBE90:
 197               	.LBE89:
 198               	.LFE150:
 200               	.global	_ZNK6String8toDoubleEv
 202               	_ZNK6String8toDoubleEv:
 203               	.LFB159:
 204               	.LM20:
 205               	.LVL21:
 206               	/* prologue: function */
 207               	/* frame size = 0 */
 208 00a6 FC01      		movw r30,r24
 209               	.LM21:
 210 00a8 8081      		ld r24,Z
 211 00aa 9181      		ldd r25,Z+1
 212               	.LVL22:
 213 00ac 0097      		sbiw r24,0
 214 00ae 01F4      		brne .L25
 215 00b0 60E0      		ldi r22,lo8(0)
 216 00b2 70E0      		ldi r23,lo8(0)
 217 00b4 80E0      		ldi r24,lo8(0)
 218 00b6 90E0      		ldi r25,lo8(0)
 219 00b8 00C0      		rjmp .L26
 220               	.L25:
 221 00ba 0E94 0000 		call atof
 222               	.LVL23:
 223               	.L26:
 224               	/* epilogue start */
 225               	.LM22:
 226 00be 0895      		ret
 227               	.LFE159:
 229               	.global	_ZNK6String7toFloatEv
 231               	_ZNK6String7toFloatEv:
 232               	.LFB158:
 233               	.LM23:
 234               	.LVL24:
 235               	/* prologue: function */
 236               	/* frame size = 0 */
 237               	.LM24:
 238 00c0 0E94 0000 		call _ZNK6String8toDoubleEv
 239               	.LVL25:
 240               	/* epilogue start */
 241               	.LM25:
 242 00c4 0895      		ret
 243               	.LFE158:
 245               	.global	_ZNK6String5toIntEv
 247               	_ZNK6String5toIntEv:
 248               	.LFB157:
 249               	.LM26:
 250               	.LVL26:
 251               	/* prologue: function */
 252               	/* frame size = 0 */
 253 00c6 FC01      		movw r30,r24
 254               	.LM27:
 255 00c8 8081      		ld r24,Z
 256 00ca 9181      		ldd r25,Z+1
 257               	.LVL27:
 258 00cc 0097      		sbiw r24,0
 259 00ce 01F4      		brne .L31
 260 00d0 20E0      		ldi r18,lo8(0)
 261 00d2 30E0      		ldi r19,hi8(0)
 262 00d4 40E0      		ldi r20,hlo8(0)
 263 00d6 50E0      		ldi r21,hhi8(0)
 264 00d8 00C0      		rjmp .L32
 265               	.L31:
 266 00da 0E94 0000 		call atol
 267               	.LVL28:
 268 00de 9B01      		movw r18,r22
 269 00e0 AC01      		movw r20,r24
 270               	.LVL29:
 271               	.L32:
 272               	.LM28:
 273 00e2 B901      		movw r22,r18
 274 00e4 CA01      		movw r24,r20
 275               	/* epilogue start */
 276 00e6 0895      		ret
 277               	.LFE157:
 279               	.global	_ZN6String4trimEv
 281               	_ZN6String4trimEv:
 282               	.LFB156:
 283               	.LM29:
 284               	.LVL30:
 285 00e8 CF92      		push r12
 286 00ea DF92      		push r13
 287 00ec EF92      		push r14
 288 00ee FF92      		push r15
 289 00f0 0F93      		push r16
 290 00f2 1F93      		push r17
 291 00f4 CF93      		push r28
 292 00f6 DF93      		push r29
 293               	/* prologue: function */
 294               	/* frame size = 0 */
 295 00f8 6C01      		movw r12,r24
 296               	.LBB91:
 297               	.LM30:
 298 00fa DC01      		movw r26,r24
 299 00fc ED90      		ld r14,X+
 300 00fe FC90      		ld r15,X
 301 0100 1197      		sbiw r26,1
 302               	.LVL31:
 303 0102 E114      		cp r14,__zero_reg__
 304 0104 F104      		cpc r15,__zero_reg__
 305 0106 01F0      		breq .L43
 306 0108 1496      		adiw r26,4
 307 010a CD91      		ld r28,X+
 308 010c DC91      		ld r29,X
 309 010e 1597      		sbiw r26,4+1
 310 0110 2097      		sbiw r28,0
 311 0112 01F0      		breq .L43
 312 0114 8701      		movw r16,r14
 313 0116 00C0      		rjmp .L36
 314               	.LVL32:
 315               	.L37:
 316               	.LM31:
 317 0118 0F5F      		subi r16,lo8(-(1))
 318 011a 1F4F      		sbci r17,hi8(-(1))
 319               	.LVL33:
 320               	.L36:
 321 011c F801      		movw r30,r16
 322 011e 8081      		ld r24,Z
 323 0120 90E0      		ldi r25,lo8(0)
 324 0122 0E94 0000 		call isspace
 325 0126 892B      		or r24,r25
 326 0128 01F4      		brne .L37
 327               	.LM32:
 328 012a 2197      		sbiw r28,1
 329               	.LVL34:
 330 012c CE0D      		add r28,r14
 331 012e DF1D      		adc r29,r15
 332 0130 00C0      		rjmp .L38
 333               	.L40:
 334               	.LM33:
 335 0132 2197      		sbiw r28,1
 336               	.L38:
 337 0134 8881      		ld r24,Y
 338 0136 90E0      		ldi r25,lo8(0)
 339 0138 0E94 0000 		call isspace
 340 013c 892B      		or r24,r25
 341 013e 01F0      		breq .L39
 342               	.LVL35:
 343 0140 C017      		cp r28,r16
 344 0142 D107      		cpc r29,r17
 345 0144 00F4      		brsh .L40
 346               	.L39:
 347               	.LM34:
 348 0146 FE01      		movw r30,r28
 349 0148 3196      		adiw r30,1
 350 014a E01B      		sub r30,r16
 351 014c F10B      		sbc r31,r17
 352 014e D601      		movw r26,r12
 353 0150 1596      		adiw r26,4+1
 354 0152 FC93      		st X,r31
 355 0154 EE93      		st -X,r30
 356 0156 1497      		sbiw r26,4
 357               	.LM35:
 358 0158 2D91      		ld r18,X+
 359 015a 3C91      		ld r19,X
 360 015c 2017      		cp r18,r16
 361 015e 3107      		cpc r19,r17
 362 0160 00F4      		brsh .L41
 363               	.LVL36:
 364 0162 C901      		movw r24,r18
 365 0164 B801      		movw r22,r16
 366               	.LVL37:
 367 0166 AF01      		movw r20,r30
 368 0168 0E94 0000 		call memcpy
 369               	.LVL38:
 370               	.L41:
 371               	.LM36:
 372 016c D601      		movw r26,r12
 373 016e ED91      		ld r30,X+
 374 0170 FC91      		ld r31,X
 375 0172 1197      		sbiw r26,1
 376 0174 1496      		adiw r26,4
 377 0176 8D91      		ld r24,X+
 378 0178 9C91      		ld r25,X
 379 017a 1597      		sbiw r26,4+1
 380 017c E80F      		add r30,r24
 381 017e F91F      		adc r31,r25
 382 0180 1082      		st Z,__zero_reg__
 383               	.LVL39:
 384               	.L43:
 385               	/* epilogue start */
 386               	.LBE91:
 387               	.LM37:
 388 0182 DF91      		pop r29
 389 0184 CF91      		pop r28
 390               	.LVL40:
 391 0186 1F91      		pop r17
 392 0188 0F91      		pop r16
 393 018a FF90      		pop r15
 394 018c EF90      		pop r14
 395               	.LVL41:
 396 018e DF90      		pop r13
 397 0190 CF90      		pop r12
 398               	.LVL42:
 399 0192 0895      		ret
 400               	.LFE156:
 402               	.global	_ZN6String11toUpperCaseEv
 404               	_ZN6String11toUpperCaseEv:
 405               	.LFB155:
 406               	.LM38:
 407               	.LVL43:
 408 0194 CF93      		push r28
 409 0196 DF93      		push r29
 410               	/* prologue: function */
 411               	/* frame size = 0 */
 412 0198 FC01      		movw r30,r24
 413               	.LBB92:
 414               	.LM39:
 415 019a C081      		ld r28,Z
 416 019c D181      		ldd r29,Z+1
 417               	.LVL44:
 418 019e 2097      		sbiw r28,0
 419 01a0 01F4      		brne .L49
 420               	.LVL45:
 421 01a2 00C0      		rjmp .L48
 422               	.LVL46:
 423               	.L47:
 424               	.LBB93:
 425               	.LM40:
 426 01a4 90E0      		ldi r25,lo8(0)
 427 01a6 0E94 0000 		call toupper
 428               	.LVL47:
 429 01aa 8993      		st Y+,r24
 430               	.LVL48:
 431               	.L49:
 432               	.LM41:
 433 01ac 8881      		ld r24,Y
 434 01ae 8823      		tst r24
 435 01b0 01F4      		brne .L47
 436               	.LVL49:
 437               	.L48:
 438               	/* epilogue start */
 439               	.LBE93:
 440               	.LBE92:
 441               	.LM42:
 442 01b2 DF91      		pop r29
 443 01b4 CF91      		pop r28
 444               	.LVL50:
 445 01b6 0895      		ret
 446               	.LFE155:
 448               	.global	_ZN6String11toLowerCaseEv
 450               	_ZN6String11toLowerCaseEv:
 451               	.LFB154:
 452               	.LM43:
 453               	.LVL51:
 454 01b8 CF93      		push r28
 455 01ba DF93      		push r29
 456               	/* prologue: function */
 457               	/* frame size = 0 */
 458 01bc FC01      		movw r30,r24
 459               	.LBB94:
 460               	.LM44:
 461 01be C081      		ld r28,Z
 462 01c0 D181      		ldd r29,Z+1
 463               	.LVL52:
 464 01c2 2097      		sbiw r28,0
 465 01c4 01F4      		brne .L55
 466               	.LVL53:
 467 01c6 00C0      		rjmp .L54
 468               	.LVL54:
 469               	.L53:
 470               	.LBB95:
 471               	.LM45:
 472 01c8 90E0      		ldi r25,lo8(0)
 473 01ca 0E94 0000 		call tolower
 474               	.LVL55:
 475 01ce 8993      		st Y+,r24
 476               	.LVL56:
 477               	.L55:
 478               	.LM46:
 479 01d0 8881      		ld r24,Y
 480 01d2 8823      		tst r24
 481 01d4 01F4      		brne .L53
 482               	.LVL57:
 483               	.L54:
 484               	/* epilogue start */
 485               	.LBE95:
 486               	.LBE94:
 487               	.LM47:
 488 01d6 DF91      		pop r29
 489 01d8 CF91      		pop r28
 490               	.LVL58:
 491 01da 0895      		ret
 492               	.LFE154:
 494               	.global	_ZNK6String16equalsIgnoreCaseERKS_
 496               	_ZNK6String16equalsIgnoreCaseERKS_:
 497               	.LFB132:
 498               	.LM48:
 499               	.LVL59:
 500 01dc EF92      		push r14
 501 01de FF92      		push r15
 502 01e0 0F93      		push r16
 503 01e2 1F93      		push r17
 504 01e4 CF93      		push r28
 505 01e6 DF93      		push r29
 506               	/* prologue: function */
 507               	/* frame size = 0 */
 508 01e8 FC01      		movw r30,r24
 509 01ea DB01      		movw r26,r22
 510               	.LBB96:
 511               	.LM49:
 512 01ec 8617      		cp r24,r22
 513 01ee 9707      		cpc r25,r23
 514 01f0 01F0      		breq .L57
 515               	.LM50:
 516 01f2 2481      		ldd r18,Z+4
 517 01f4 3581      		ldd r19,Z+5
 518 01f6 1496      		adiw r26,4
 519 01f8 8D91      		ld r24,X+
 520 01fa 9C91      		ld r25,X
 521 01fc 1597      		sbiw r26,4+1
 522               	.LVL60:
 523 01fe 2817      		cp r18,r24
 524 0200 3907      		cpc r19,r25
 525 0202 01F4      		brne .L58
 526               	.LVL61:
 527               	.LM51:
 528 0204 232B      		or r18,r19
 529 0206 01F0      		breq .L57
 530               	.LM52:
 531 0208 E080      		ld r14,Z
 532 020a F180      		ldd r15,Z+1
 533               	.LVL62:
 534               	.LM53:
 535 020c CD91      		ld r28,X+
 536 020e DC91      		ld r29,X
 537               	.LVL63:
 538 0210 00C0      		rjmp .L59
 539               	.LVL64:
 540               	.L60:
 541               	.LM54:
 542 0212 90E0      		ldi r25,lo8(0)
 543 0214 0E94 0000 		call tolower
 544               	.LVL65:
 545 0218 8C01      		movw r16,r24
 546 021a 8881      		ld r24,Y
 547 021c 90E0      		ldi r25,lo8(0)
 548 021e 0E94 0000 		call tolower
 549 0222 0817      		cp r16,r24
 550 0224 1907      		cpc r17,r25
 551 0226 01F4      		brne .L58
 552 0228 0894      		sec
 553 022a E11C      		adc r14,__zero_reg__
 554 022c F11C      		adc r15,__zero_reg__
 555 022e 2196      		adiw r28,1
 556               	.LVL66:
 557               	.L59:
 558               	.LM55:
 559 0230 F701      		movw r30,r14
 560               	.LVL67:
 561 0232 8081      		ld r24,Z
 562 0234 8823      		tst r24
 563 0236 01F4      		brne .L60
 564               	.LVL68:
 565               	.L57:
 566 0238 81E0      		ldi r24,lo8(1)
 567 023a 00C0      		rjmp .L61
 568               	.LVL69:
 569               	.L58:
 570 023c 80E0      		ldi r24,lo8(0)
 571               	.L61:
 572               	/* epilogue start */
 573               	.LBE96:
 574               	.LM56:
 575 023e DF91      		pop r29
 576 0240 CF91      		pop r28
 577               	.LVL70:
 578 0242 1F91      		pop r17
 579 0244 0F91      		pop r16
 580 0246 FF90      		pop r15
 581 0248 EF90      		pop r14
 582               	.LVL71:
 583 024a 0895      		ret
 584               	.LFE132:
 586               	.global	_ZN6String6removeEjj
 588               	_ZN6String6removeEjj:
 589               	.LFB153:
 590               	.LM57:
 591               	.LVL72:
 592 024c CF93      		push r28
 593 024e DF93      		push r29
 594               	/* prologue: function */
 595               	/* frame size = 0 */
 596 0250 EC01      		movw r28,r24
 597 0252 FB01      		movw r30,r22
 598               	.LBB97:
 599               	.LM58:
 600 0254 8C81      		ldd r24,Y+4
 601 0256 9D81      		ldd r25,Y+5
 602               	.LVL73:
 603 0258 6817      		cp r22,r24
 604 025a 7907      		cpc r23,r25
 605 025c 00F4      		brsh .L66
 606               	.LM59:
 607 025e 4115      		cp r20,__zero_reg__
 608 0260 5105      		cpc r21,__zero_reg__
 609 0262 01F0      		breq .L66
 610 0264 9C01      		movw r18,r24
 611               	.LVL74:
 612 0266 261B      		sub r18,r22
 613 0268 370B      		sbc r19,r23
 614 026a 4217      		cp r20,r18
 615 026c 5307      		cpc r21,r19
 616 026e 00F4      		brsh .L65
 617               	.LVL75:
 618 0270 9A01      		movw r18,r20
 619               	.L65:
 620               	.LM60:
 621 0272 6881      		ld r22,Y
 622 0274 7981      		ldd r23,Y+1
 623               	.LVL76:
 624               	.LM61:
 625 0276 AC01      		movw r20,r24
 626               	.LVL77:
 627 0278 421B      		sub r20,r18
 628 027a 530B      		sbc r21,r19
 629 027c 5D83      		std Y+5,r21
 630 027e 4C83      		std Y+4,r20
 631               	.LM62:
 632 0280 2E0F      		add r18,r30
 633 0282 3F1F      		adc r19,r31
 634 0284 4E1B      		sub r20,r30
 635 0286 5F0B      		sbc r21,r31
 636 0288 CB01      		movw r24,r22
 637 028a 8E0F      		add r24,r30
 638 028c 9F1F      		adc r25,r31
 639 028e 620F      		add r22,r18
 640 0290 731F      		adc r23,r19
 641 0292 0E94 0000 		call strncpy
 642               	.LVL78:
 643               	.LM63:
 644 0296 E881      		ld r30,Y
 645 0298 F981      		ldd r31,Y+1
 646 029a 8C81      		ldd r24,Y+4
 647 029c 9D81      		ldd r25,Y+5
 648 029e E80F      		add r30,r24
 649 02a0 F91F      		adc r31,r25
 650 02a2 1082      		st Z,__zero_reg__
 651               	.LVL79:
 652               	.L66:
 653               	/* epilogue start */
 654               	.LBE97:
 655               	.LM64:
 656 02a4 DF91      		pop r29
 657 02a6 CF91      		pop r28
 658               	.LVL80:
 659 02a8 0895      		ret
 660               	.LFE153:
 662               	.global	_ZN6String6removeEj
 664               	_ZN6String6removeEj:
 665               	.LFB152:
 666               	.LM65:
 667               	.LVL81:
 668               	/* prologue: function */
 669               	/* frame size = 0 */
 670               	.LM66:
 671 02aa 4FEF      		ldi r20,lo8(-1)
 672 02ac 5FEF      		ldi r21,hi8(-1)
 673 02ae 0E94 0000 		call _ZN6String6removeEjj
 674               	.LVL82:
 675               	/* epilogue start */
 676               	.LM67:
 677 02b2 0895      		ret
 678               	.LFE152:
 680               	.global	_ZNK6String8getBytesEPhjj
 682               	_ZNK6String8getBytesEPhjj:
 683               	.LFB140:
 684               	.LM68:
 685               	.LVL83:
 686 02b4 0F93      		push r16
 687 02b6 1F93      		push r17
 688 02b8 CF93      		push r28
 689 02ba DF93      		push r29
 690               	/* prologue: function */
 691               	/* frame size = 0 */
 692 02bc FC01      		movw r30,r24
 693 02be 8B01      		movw r16,r22
 694               	.LBB98:
 695               	.LM69:
 696 02c0 4115      		cp r20,__zero_reg__
 697 02c2 5105      		cpc r21,__zero_reg__
 698 02c4 01F0      		breq .L73
 699               	.LVL84:
 700 02c6 6115      		cp r22,__zero_reg__
 701 02c8 7105      		cpc r23,__zero_reg__
 702 02ca 01F0      		breq .L73
 703               	.LVL85:
 704               	.LM70:
 705 02cc 8481      		ldd r24,Z+4
 706 02ce 9581      		ldd r25,Z+5
 707 02d0 2817      		cp r18,r24
 708 02d2 3907      		cpc r19,r25
 709 02d4 00F0      		brlo .L71
 710               	.LM71:
 711 02d6 FB01      		movw r30,r22
 712               	.LVL86:
 713 02d8 1082      		st Z,__zero_reg__
 714 02da 00C0      		rjmp .L73
 715               	.LVL87:
 716               	.L71:
 717               	.LM72:
 718 02dc 4150      		subi r20,lo8(-(-1))
 719 02de 5040      		sbci r21,hi8(-(-1))
 720               	.LVL88:
 721 02e0 EC01      		movw r28,r24
 722               	.LVL89:
 723 02e2 C21B      		sub r28,r18
 724 02e4 D30B      		sbc r29,r19
 725 02e6 4C17      		cp r20,r28
 726 02e8 5D07      		cpc r21,r29
 727 02ea 00F4      		brsh .L72
 728               	.LVL90:
 729 02ec EA01      		movw r28,r20
 730               	.L72:
 731               	.LM73:
 732 02ee 6081      		ld r22,Z
 733 02f0 7181      		ldd r23,Z+1
 734               	.LVL91:
 735 02f2 620F      		add r22,r18
 736 02f4 731F      		adc r23,r19
 737 02f6 C801      		movw r24,r16
 738 02f8 AE01      		movw r20,r28
 739               	.LVL92:
 740 02fa 0E94 0000 		call strncpy
 741               	.LVL93:
 742               	.LM74:
 743 02fe C00F      		add r28,r16
 744 0300 D11F      		adc r29,r17
 745 0302 1882      		st Y,__zero_reg__
 746               	.LVL94:
 747               	.L73:
 748               	/* epilogue start */
 749               	.LBE98:
 750               	.LM75:
 751 0304 DF91      		pop r29
 752 0306 CF91      		pop r28
 753               	.LVL95:
 754 0308 1F91      		pop r17
 755 030a 0F91      		pop r16
 756               	.LVL96:
 757 030c 0895      		ret
 758               	.LFE140:
 760               	.global	_ZNK6String11lastIndexOfERKS_j
 762               	_ZNK6String11lastIndexOfERKS_j:
 763               	.LFB148:
 764               	.LM76:
 765               	.LVL97:
 766 030e AF92      		push r10
 767 0310 BF92      		push r11
 768 0312 CF92      		push r12
 769 0314 DF92      		push r13
 770 0316 EF92      		push r14
 771 0318 FF92      		push r15
 772 031a 0F93      		push r16
 773 031c 1F93      		push r17
 774 031e CF93      		push r28
 775 0320 DF93      		push r29
 776               	/* prologue: function */
 777               	/* frame size = 0 */
 778 0322 FC01      		movw r30,r24
 779 0324 5B01      		movw r10,r22
 780 0326 7A01      		movw r14,r20
 781               	.LBB99:
 782               	.LM77:
 783 0328 DB01      		movw r26,r22
 784 032a 1496      		adiw r26,4
 785 032c 2D91      		ld r18,X+
 786 032e 3C91      		ld r19,X
 787 0330 1597      		sbiw r26,4+1
 788 0332 2115      		cp r18,__zero_reg__
 789 0334 3105      		cpc r19,__zero_reg__
 790 0336 01F0      		breq .L75
 791               	.LVL98:
 792 0338 8481      		ldd r24,Z+4
 793 033a 9581      		ldd r25,Z+5
 794 033c 0097      		sbiw r24,0
 795 033e 01F0      		breq .L75
 796 0340 8217      		cp r24,r18
 797 0342 9307      		cpc r25,r19
 798 0344 00F0      		brlo .L75
 799               	.LM78:
 800 0346 4817      		cp r20,r24
 801 0348 5907      		cpc r21,r25
 802 034a 00F0      		brlo .L76
 803               	.LVL99:
 804 034c 7C01      		movw r14,r24
 805               	.LVL100:
 806 034e 0894      		sec
 807 0350 E108      		sbc r14,__zero_reg__
 808 0352 F108      		sbc r15,__zero_reg__
 809               	.LVL101:
 810               	.L76:
 811               	.LBB100:
 812               	.LM79:
 813 0354 0081      		ld r16,Z
 814 0356 1181      		ldd r17,Z+1
 815               	.LVL102:
 816 0358 C801      		movw r24,r16
 817 035a CFEF      		ldi r28,lo8(-1)
 818 035c DFEF      		ldi r29,hi8(-1)
 819               	.LVL103:
 820 035e 6801      		movw r12,r16
 821 0360 CE0C      		add r12,r14
 822 0362 DF1C      		adc r13,r15
 823 0364 00C0      		rjmp .L77
 824               	.LVL104:
 825               	.L80:
 826               	.LM80:
 827 0366 F501      		movw r30,r10
 828               	.LVL105:
 829 0368 6081      		ld r22,Z
 830 036a 7181      		ldd r23,Z+1
 831               	.LVL106:
 832 036c 0E94 0000 		call strstr
 833               	.LVL107:
 834 0370 9C01      		movw r18,r24
 835               	.LM81:
 836 0372 0097      		sbiw r24,0
 837 0374 01F0      		breq .L78
 838               	.LVL108:
 839               	.LM82:
 840 0376 801B      		sub r24,r16
 841 0378 910B      		sbc r25,r17
 842               	.LVL109:
 843 037a E816      		cp r14,r24
 844 037c F906      		cpc r15,r25
 845 037e 00F0      		brlo .L79
 846 0380 EC01      		movw r28,r24
 847               	.L79:
 848               	.LM83:
 849 0382 C901      		movw r24,r18
 850               	.LVL110:
 851 0384 0196      		adiw r24,1
 852               	.LVL111:
 853               	.L77:
 854 0386 C816      		cp r12,r24
 855 0388 D906      		cpc r13,r25
 856 038a 00F4      		brsh .L80
 857               	.LVL112:
 858 038c 00C0      		rjmp .L78
 859               	.LVL113:
 860               	.L75:
 861 038e CFEF      		ldi r28,lo8(-1)
 862 0390 DFEF      		ldi r29,hi8(-1)
 863               	.LVL114:
 864               	.L78:
 865               	.LBE100:
 866               	.LBE99:
 867               	.LM84:
 868 0392 CE01      		movw r24,r28
 869               	.LVL115:
 870               	/* epilogue start */
 871 0394 DF91      		pop r29
 872 0396 CF91      		pop r28
 873 0398 1F91      		pop r17
 874 039a 0F91      		pop r16
 875               	.LVL116:
 876 039c FF90      		pop r15
 877 039e EF90      		pop r14
 878               	.LVL117:
 879 03a0 DF90      		pop r13
 880 03a2 CF90      		pop r12
 881 03a4 BF90      		pop r11
 882 03a6 AF90      		pop r10
 883               	.LVL118:
 884 03a8 0895      		ret
 885               	.LFE148:
 887               	.global	_ZNK6String11lastIndexOfERKS_
 889               	_ZNK6String11lastIndexOfERKS_:
 890               	.LFB147:
 891               	.LM85:
 892               	.LVL119:
 893               	/* prologue: function */
 894               	/* frame size = 0 */
 895 03aa FC01      		movw r30,r24
 896 03ac DB01      		movw r26,r22
 897               	.LM86:
 898 03ae 4481      		ldd r20,Z+4
 899 03b0 5581      		ldd r21,Z+5
 900 03b2 1496      		adiw r26,4
 901 03b4 8D91      		ld r24,X+
 902 03b6 9C91      		ld r25,X
 903 03b8 1597      		sbiw r26,4+1
 904               	.LVL120:
 905 03ba 481B      		sub r20,r24
 906 03bc 590B      		sbc r21,r25
 907 03be CF01      		movw r24,r30
 908 03c0 0E94 0000 		call _ZNK6String11lastIndexOfERKS_j
 909               	.LVL121:
 910               	/* epilogue start */
 911               	.LM87:
 912 03c4 0895      		ret
 913               	.LFE147:
 915               	.global	_ZNK6String7indexOfERKS_j
 917               	_ZNK6String7indexOfERKS_j:
 918               	.LFB144:
 919               	.LM88:
 920               	.LVL122:
 921 03c6 CF93      		push r28
 922 03c8 DF93      		push r29
 923               	/* prologue: function */
 924               	/* frame size = 0 */
 925 03ca FC01      		movw r30,r24
 926 03cc DB01      		movw r26,r22
 927               	.LBB101:
 928               	.LM89:
 929 03ce 8481      		ldd r24,Z+4
 930 03d0 9581      		ldd r25,Z+5
 931               	.LVL123:
 932 03d2 4817      		cp r20,r24
 933 03d4 5907      		cpc r21,r25
 934 03d6 00F4      		brsh .L89
 935               	.LVL124:
 936               	.L85:
 937               	.LM90:
 938 03d8 C081      		ld r28,Z
 939 03da D181      		ldd r29,Z+1
 940 03dc 6D91      		ld r22,X+
 941 03de 7C91      		ld r23,X
 942 03e0 CE01      		movw r24,r28
 943 03e2 840F      		add r24,r20
 944 03e4 951F      		adc r25,r21
 945 03e6 0E94 0000 		call strstr
 946               	.LVL125:
 947 03ea 9C01      		movw r18,r24
 948               	.LM91:
 949 03ec 0097      		sbiw r24,0
 950               	.LVL126:
 951 03ee 01F4      		brne .L87
 952               	.LVL127:
 953               	.L89:
 954 03f0 2FEF      		ldi r18,lo8(-1)
 955 03f2 3FEF      		ldi r19,hi8(-1)
 956 03f4 00C0      		rjmp .L86
 957               	.LVL128:
 958               	.L87:
 959               	.LM92:
 960 03f6 2C1B      		sub r18,r28
 961 03f8 3D0B      		sbc r19,r29
 962               	.LVL129:
 963               	.L86:
 964               	.LBE101:
 965               	.LM93:
 966 03fa C901      		movw r24,r18
 967               	.LVL130:
 968               	/* epilogue start */
 969 03fc DF91      		pop r29
 970 03fe CF91      		pop r28
 971 0400 0895      		ret
 972               	.LFE144:
 974               	.global	_ZNK6String7indexOfERKS_
 976               	_ZNK6String7indexOfERKS_:
 977               	.LFB143:
 978               	.LM94:
 979               	.LVL131:
 980               	/* prologue: function */
 981               	/* frame size = 0 */
 982               	.LM95:
 983 0402 40E0      		ldi r20,lo8(0)
 984 0404 50E0      		ldi r21,hi8(0)
 985 0406 0E94 0000 		call _ZNK6String7indexOfERKS_j
 986               	.LVL132:
 987               	/* epilogue start */
 988               	.LM96:
 989 040a 0895      		ret
 990               	.LFE143:
 992               	.global	_ZNK6String11lastIndexOfEcj
 994               	_ZNK6String11lastIndexOfEcj:
 995               	.LFB146:
 996               	.LM97:
 997               	.LVL133:
 998 040c DF92      		push r13
 999 040e EF92      		push r14
 1000 0410 FF92      		push r15
 1001 0412 0F93      		push r16
 1002 0414 1F93      		push r17
 1003 0416 CF93      		push r28
 1004 0418 DF93      		push r29
 1005               	/* prologue: function */
 1006               	/* frame size = 0 */
 1007 041a EC01      		movw r28,r24
 1008               	.LBB102:
 1009               	.LM98:
 1010 041c 8C81      		ldd r24,Y+4
 1011 041e 9D81      		ldd r25,Y+5
 1012               	.LVL134:
 1013 0420 4817      		cp r20,r24
 1014 0422 5907      		cpc r21,r25
 1015 0424 00F4      		brsh .L97
 1016               	.L93:
 1017               	.LM99:
 1018 0426 7A01      		movw r14,r20
 1019 0428 0894      		sec
 1020 042a E11C      		adc r14,__zero_reg__
 1021 042c F11C      		adc r15,__zero_reg__
 1022 042e E881      		ld r30,Y
 1023 0430 F981      		ldd r31,Y+1
 1024 0432 EE0D      		add r30,r14
 1025 0434 FF1D      		adc r31,r15
 1026 0436 D080      		ld r13,Z
 1027               	.LVL135:
 1028               	.LM100:
 1029 0438 1082      		st Z,__zero_reg__
 1030               	.LM101:
 1031 043a 0881      		ld r16,Y
 1032 043c 1981      		ldd r17,Y+1
 1033 043e C801      		movw r24,r16
 1034 0440 70E0      		ldi r23,lo8(0)
 1035 0442 0E94 0000 		call strrchr
 1036               	.LVL136:
 1037 0446 9C01      		movw r18,r24
 1038               	.LM102:
 1039 0448 0E0D      		add r16,r14
 1040 044a 1F1D      		adc r17,r15
 1041 044c F801      		movw r30,r16
 1042 044e D082      		st Z,r13
 1043               	.LM103:
 1044 0450 0097      		sbiw r24,0
 1045               	.LVL137:
 1046 0452 01F4      		brne .L95
 1047               	.LVL138:
 1048               	.L97:
 1049 0454 EFEF      		ldi r30,lo8(-1)
 1050 0456 FFEF      		ldi r31,hi8(-1)
 1051 0458 00C0      		rjmp .L94
 1052               	.LVL139:
 1053               	.L95:
 1054               	.LM104:
 1055 045a 8881      		ld r24,Y
 1056 045c 9981      		ldd r25,Y+1
 1057               	.LVL140:
 1058 045e F901      		movw r30,r18
 1059               	.LVL141:
 1060 0460 E81B      		sub r30,r24
 1061 0462 F90B      		sbc r31,r25
 1062               	.LVL142:
 1063               	.L94:
 1064               	.LBE102:
 1065               	.LM105:
 1066 0464 CF01      		movw r24,r30
 1067               	/* epilogue start */
 1068 0466 DF91      		pop r29
 1069 0468 CF91      		pop r28
 1070               	.LVL143:
 1071 046a 1F91      		pop r17
 1072 046c 0F91      		pop r16
 1073 046e FF90      		pop r15
 1074 0470 EF90      		pop r14
 1075 0472 DF90      		pop r13
 1076               	.LVL144:
 1077 0474 0895      		ret
 1078               	.LFE146:
 1080               	.global	_ZNK6String11lastIndexOfEc
 1082               	_ZNK6String11lastIndexOfEc:
 1083               	.LFB145:
 1084               	.LM106:
 1085               	.LVL145:
 1086               	/* prologue: function */
 1087               	/* frame size = 0 */
 1088 0476 FC01      		movw r30,r24
 1089               	.LM107:
 1090 0478 4481      		ldd r20,Z+4
 1091 047a 5581      		ldd r21,Z+5
 1092 047c 4150      		subi r20,lo8(-(-1))
 1093 047e 5040      		sbci r21,hi8(-(-1))
 1094 0480 0E94 0000 		call _ZNK6String11lastIndexOfEcj
 1095               	.LVL146:
 1096               	/* epilogue start */
 1097               	.LM108:
 1098 0484 0895      		ret
 1099               	.LFE145:
 1101               	.global	_ZNK6String7indexOfEcj
 1103               	_ZNK6String7indexOfEcj:
 1104               	.LFB142:
 1105               	.LM109:
 1106               	.LVL147:
 1107 0486 CF93      		push r28
 1108 0488 DF93      		push r29
 1109               	/* prologue: function */
 1110               	/* frame size = 0 */
 1111 048a FC01      		movw r30,r24
 1112               	.LBB103:
 1113               	.LM110:
 1114 048c 8481      		ldd r24,Z+4
 1115 048e 9581      		ldd r25,Z+5
 1116               	.LVL148:
 1117 0490 4817      		cp r20,r24
 1118 0492 5907      		cpc r21,r25
 1119 0494 00F4      		brsh .L105
 1120               	.L101:
 1121               	.LM111:
 1122 0496 C081      		ld r28,Z
 1123 0498 D181      		ldd r29,Z+1
 1124 049a CE01      		movw r24,r28
 1125 049c 840F      		add r24,r20
 1126 049e 951F      		adc r25,r21
 1127 04a0 70E0      		ldi r23,lo8(0)
 1128 04a2 0E94 0000 		call strchr
 1129               	.LVL149:
 1130 04a6 9C01      		movw r18,r24
 1131               	.LM112:
 1132 04a8 0097      		sbiw r24,0
 1133               	.LVL150:
 1134 04aa 01F4      		brne .L103
 1135               	.LVL151:
 1136               	.L105:
 1137 04ac 2FEF      		ldi r18,lo8(-1)
 1138 04ae 3FEF      		ldi r19,hi8(-1)
 1139 04b0 00C0      		rjmp .L102
 1140               	.LVL152:
 1141               	.L103:
 1142               	.LM113:
 1143 04b2 2C1B      		sub r18,r28
 1144 04b4 3D0B      		sbc r19,r29
 1145               	.LVL153:
 1146               	.L102:
 1147               	.LBE103:
 1148               	.LM114:
 1149 04b6 C901      		movw r24,r18
 1150               	.LVL154:
 1151               	/* epilogue start */
 1152 04b8 DF91      		pop r29
 1153 04ba CF91      		pop r28
 1154 04bc 0895      		ret
 1155               	.LFE142:
 1157               	.global	_ZNK6String7indexOfEc
 1159               	_ZNK6String7indexOfEc:
 1160               	.LFB141:
 1161               	.LM115:
 1162               	.LVL155:
 1163               	/* prologue: function */
 1164               	/* frame size = 0 */
 1165               	.LM116:
 1166 04be 40E0      		ldi r20,lo8(0)
 1167 04c0 50E0      		ldi r21,hi8(0)
 1168 04c2 0E94 0000 		call _ZNK6String7indexOfEcj
 1169               	.LVL156:
 1170               	/* epilogue start */
 1171               	.LM117:
 1172 04c6 0895      		ret
 1173               	.LFE141:
 1175               	.global	_ZNK6String8endsWithERKS_
 1177               	_ZNK6String8endsWithERKS_:
 1178               	.LFB135:
 1179               	.LM118:
 1180               	.LVL157:
 1181               	/* prologue: function */
 1182               	/* frame size = 0 */
 1183 04c8 FC01      		movw r30,r24
 1184 04ca DB01      		movw r26,r22
 1185               	.LM119:
 1186 04cc 2481      		ldd r18,Z+4
 1187 04ce 3581      		ldd r19,Z+5
 1188 04d0 1496      		adiw r26,4
 1189 04d2 4D91      		ld r20,X+
 1190 04d4 5C91      		ld r21,X
 1191 04d6 1597      		sbiw r26,4+1
 1192 04d8 2417      		cp r18,r20
 1193 04da 3507      		cpc r19,r21
 1194 04dc 00F0      		brlo .L109
 1195               	.LVL158:
 1196 04de 8081      		ld r24,Z
 1197 04e0 9181      		ldd r25,Z+1
 1198 04e2 0097      		sbiw r24,0
 1199 04e4 01F0      		breq .L109
 1200 04e6 6D91      		ld r22,X+
 1201 04e8 7C91      		ld r23,X
 1202 04ea 6115      		cp r22,__zero_reg__
 1203 04ec 7105      		cpc r23,__zero_reg__
 1204 04ee 01F0      		breq .L109
 1205               	.LM120:
 1206 04f0 241B      		sub r18,r20
 1207 04f2 350B      		sbc r19,r21
 1208 04f4 820F      		add r24,r18
 1209 04f6 931F      		adc r25,r19
 1210 04f8 0E94 0000 		call strcmp
 1211               	.LVL159:
 1212 04fc 9C01      		movw r18,r24
 1213 04fe 80E0      		ldi r24,lo8(0)
 1214 0500 232B      		or r18,r19
 1215 0502 01F4      		brne .L111
 1216 0504 81E0      		ldi r24,lo8(1)
 1217 0506 0895      		ret
 1218               	.LVL160:
 1219               	.L109:
 1220 0508 80E0      		ldi r24,lo8(0)
 1221               	.L111:
 1222               	.LM121:
 1223 050a 0895      		ret
 1224               	.LFE135:
 1226               	.global	_ZNK6String6equalsEPKc
 1228               	_ZNK6String6equalsEPKc:
 1229               	.LFB127:
 1230               	.LM122:
 1231               	.LVL161:
 1232               	/* prologue: function */
 1233               	/* frame size = 0 */
 1234 050c DC01      		movw r26,r24
 1235 050e FB01      		movw r30,r22
 1236               	.LM123:
 1237 0510 1496      		adiw r26,4
 1238 0512 8D91      		ld r24,X+
 1239 0514 9C91      		ld r25,X
 1240 0516 1597      		sbiw r26,4+1
 1241               	.LVL162:
 1242 0518 892B      		or r24,r25
 1243 051a 01F4      		brne .L114
 1244               	.LVL163:
 1245 051c 6115      		cp r22,__zero_reg__
 1246 051e 7105      		cpc r23,__zero_reg__
 1247 0520 01F0      		breq .L123
 1248               	.LVL164:
 1249               	.L115:
 1250 0522 90E0      		ldi r25,lo8(0)
 1251 0524 8081      		ld r24,Z
 1252 0526 00C0      		rjmp .L124
 1253               	.LVL165:
 1254               	.L114:
 1255 0528 0D90      		ld __tmp_reg__,X+
 1256 052a BC91      		ld r27,X
 1257 052c A02D      		mov r26,__tmp_reg__
 1258               	.LVL166:
 1259               	.LM124:
 1260 052e 6115      		cp r22,__zero_reg__
 1261 0530 7105      		cpc r23,__zero_reg__
 1262 0532 01F4      		brne .L119
 1263               	.LVL167:
 1264 0534 90E0      		ldi r25,lo8(0)
 1265 0536 8C91      		ld r24,X
 1266               	.LVL168:
 1267               	.L124:
 1268 0538 8823      		tst r24
 1269 053a 01F4      		brne .L118
 1270 053c 00C0      		rjmp .L123
 1271               	.LVL169:
 1272               	.L119:
 1273               	.LM125:
 1274 053e CD01      		movw r24,r26
 1275 0540 0E94 0000 		call strcmp
 1276               	.LVL170:
 1277 0544 9C01      		movw r18,r24
 1278 0546 90E0      		ldi r25,lo8(0)
 1279 0548 232B      		or r18,r19
 1280 054a 01F4      		brne .L118
 1281               	.LVL171:
 1282               	.L123:
 1283 054c 91E0      		ldi r25,lo8(1)
 1284               	.L118:
 1285               	.LM126:
 1286 054e 892F      		mov r24,r25
 1287               	/* epilogue start */
 1288 0550 0895      		ret
 1289               	.LFE127:
 1291               	.global	_ZNK6String9compareToERKS_
 1293               	_ZNK6String9compareToERKS_:
 1294               	.LFB125:
 1295               	.LM127:
 1296               	.LVL172:
 1297 0552 CF93      		push r28
 1298 0554 DF93      		push r29
 1299               	/* prologue: function */
 1300               	/* frame size = 0 */
 1301 0556 9C01      		movw r18,r24
 1302 0558 FB01      		movw r30,r22
 1303               	.LM128:
 1304 055a EC01      		movw r28,r24
 1305 055c A881      		ld r26,Y
 1306 055e B981      		ldd r27,Y+1
 1307 0560 1097      		sbiw r26,0
 1308 0562 01F0      		breq .L126
 1309               	.LVL173:
 1310 0564 6081      		ld r22,Z
 1311 0566 7181      		ldd r23,Z+1
 1312 0568 6115      		cp r22,__zero_reg__
 1313 056a 7105      		cpc r23,__zero_reg__
 1314 056c 01F4      		brne .L127
 1315               	.LVL174:
 1316               	.L126:
 1317               	.LM129:
 1318 056e C081      		ld r28,Z
 1319 0570 D181      		ldd r29,Z+1
 1320 0572 2097      		sbiw r28,0
 1321 0574 01F0      		breq .L128
 1322 0576 8481      		ldd r24,Z+4
 1323 0578 9581      		ldd r25,Z+5
 1324               	.LVL175:
 1325 057a 892B      		or r24,r25
 1326 057c 01F0      		breq .L128
 1327 057e 8881      		ld r24,Y
 1328 0580 90E0      		ldi r25,lo8(0)
 1329 0582 2227      		clr r18
 1330 0584 3327      		clr r19
 1331 0586 281B      		sub r18,r24
 1332 0588 390B      		sbc r19,r25
 1333               	.LVL176:
 1334 058a 00C0      		rjmp .L129
 1335               	.LVL177:
 1336               	.L128:
 1337               	.LM130:
 1338 058c 1097      		sbiw r26,0
 1339 058e 01F0      		breq .L130
 1340 0590 F901      		movw r30,r18
 1341               	.LVL178:
 1342 0592 8481      		ldd r24,Z+4
 1343 0594 9581      		ldd r25,Z+5
 1344 0596 892B      		or r24,r25
 1345 0598 01F0      		breq .L130
 1346 059a 8C91      		ld r24,X
 1347 059c 282F      		mov r18,r24
 1348               	.LVL179:
 1349 059e 30E0      		ldi r19,lo8(0)
 1350 05a0 00C0      		rjmp .L129
 1351               	.LVL180:
 1352               	.L127:
 1353               	.LM131:
 1354 05a2 CD01      		movw r24,r26
 1355               	.LVL181:
 1356 05a4 0E94 0000 		call strcmp
 1357               	.LVL182:
 1358 05a8 9C01      		movw r18,r24
 1359 05aa 00C0      		rjmp .L129
 1360               	.LVL183:
 1361               	.L130:
 1362 05ac 20E0      		ldi r18,lo8(0)
 1363 05ae 30E0      		ldi r19,hi8(0)
 1364               	.LVL184:
 1365               	.L129:
 1366               	.LM132:
 1367 05b0 C901      		movw r24,r18
 1368               	.LVL185:
 1369               	/* epilogue start */
 1370 05b2 DF91      		pop r29
 1371 05b4 CF91      		pop r28
 1372 05b6 0895      		ret
 1373               	.LFE125:
 1375               	.global	_ZNK6StringgeERKS_
 1377               	_ZNK6StringgeERKS_:
 1378               	.LFB131:
 1379               	.LM133:
 1380               	.LVL186:
 1381               	/* prologue: function */
 1382               	/* frame size = 0 */
 1383               	.LM134:
 1384 05b8 0E94 0000 		call _ZNK6String9compareToERKS_
 1385               	.LVL187:
 1386 05bc 892F      		mov r24,r25
 1387 05be 8095      		com r24
 1388               	.LM135:
 1389 05c0 881F      		rol r24
 1390 05c2 8827      		clr r24
 1391 05c4 881F      		rol r24
 1392               	/* epilogue start */
 1393 05c6 0895      		ret
 1394               	.LFE131:
 1396               	.global	_ZNK6StringleERKS_
 1398               	_ZNK6StringleERKS_:
 1399               	.LFB130:
 1400               	.LM136:
 1401               	.LVL188:
 1402               	/* prologue: function */
 1403               	/* frame size = 0 */
 1404               	.LM137:
 1405 05c8 0E94 0000 		call _ZNK6String9compareToERKS_
 1406               	.LVL189:
 1407 05cc 20E0      		ldi r18,lo8(0)
 1408 05ce 1816      		cp __zero_reg__,r24
 1409 05d0 1906      		cpc __zero_reg__,r25
 1410 05d2 04F0      		brlt .L136
 1411 05d4 21E0      		ldi r18,lo8(1)
 1412               	.L136:
 1413               	.LM138:
 1414 05d6 822F      		mov r24,r18
 1415               	/* epilogue start */
 1416 05d8 0895      		ret
 1417               	.LFE130:
 1419               	.global	_ZNK6StringgtERKS_
 1421               	_ZNK6StringgtERKS_:
 1422               	.LFB129:
 1423               	.LM139:
 1424               	.LVL190:
 1425               	/* prologue: function */
 1426               	/* frame size = 0 */
 1427               	.LM140:
 1428 05da 0E94 0000 		call _ZNK6String9compareToERKS_
 1429               	.LVL191:
 1430 05de 20E0      		ldi r18,lo8(0)
 1431 05e0 1816      		cp __zero_reg__,r24
 1432 05e2 1906      		cpc __zero_reg__,r25
 1433 05e4 04F4      		brge .L139
 1434 05e6 21E0      		ldi r18,lo8(1)
 1435               	.L139:
 1436               	.LM141:
 1437 05e8 822F      		mov r24,r18
 1438               	/* epilogue start */
 1439 05ea 0895      		ret
 1440               	.LFE129:
 1442               	.global	_ZNK6StringltERKS_
 1444               	_ZNK6StringltERKS_:
 1445               	.LFB128:
 1446               	.LM142:
 1447               	.LVL192:
 1448               	/* prologue: function */
 1449               	/* frame size = 0 */
 1450               	.LM143:
 1451 05ec 0E94 0000 		call _ZNK6String9compareToERKS_
 1452               	.LVL193:
 1453               	.LM144:
 1454 05f0 892F      		mov r24,r25
 1455 05f2 881F      		rol r24
 1456 05f4 8827      		clr r24
 1457 05f6 881F      		rol r24
 1458               	/* epilogue start */
 1459 05f8 0895      		ret
 1460               	.LFE128:
 1462               	.global	_ZNK6String6equalsERKS_
 1464               	_ZNK6String6equalsERKS_:
 1465               	.LFB126:
 1466               	.LM145:
 1467               	.LVL194:
 1468               	/* prologue: function */
 1469               	/* frame size = 0 */
 1470 05fa FC01      		movw r30,r24
 1471 05fc DB01      		movw r26,r22
 1472               	.LM146:
 1473 05fe 2481      		ldd r18,Z+4
 1474 0600 3581      		ldd r19,Z+5
 1475 0602 1496      		adiw r26,4
 1476 0604 8D91      		ld r24,X+
 1477 0606 9C91      		ld r25,X
 1478 0608 1597      		sbiw r26,4+1
 1479               	.LVL195:
 1480 060a 2817      		cp r18,r24
 1481 060c 3907      		cpc r19,r25
 1482 060e 01F0      		breq .L145
 1483               	.LVL196:
 1484 0610 20E0      		ldi r18,lo8(0)
 1485 0612 00C0      		rjmp .L146
 1486               	.L145:
 1487 0614 CF01      		movw r24,r30
 1488 0616 0E94 0000 		call _ZNK6String9compareToERKS_
 1489               	.LVL197:
 1490 061a 20E0      		ldi r18,lo8(0)
 1491 061c 892B      		or r24,r25
 1492 061e 01F4      		brne .L146
 1493 0620 21E0      		ldi r18,lo8(1)
 1494               	.LVL198:
 1495               	.L146:
 1496               	.LM147:
 1497 0622 822F      		mov r24,r18
 1498               	/* epilogue start */
 1499 0624 0895      		ret
 1500               	.LFE126:
 1502               	.global	_ZNK6String10startsWithERKS_j
 1504               	_ZNK6String10startsWithERKS_j:
 1505               	.LFB134:
 1506               	.LM148:
 1507               	.LVL199:
 1508               	/* prologue: function */
 1509               	/* frame size = 0 */
 1510 0626 FC01      		movw r30,r24
 1511 0628 DB01      		movw r26,r22
 1512               	.LM149:
 1513 062a 1496      		adiw r26,4
 1514 062c 2D91      		ld r18,X+
 1515 062e 3C91      		ld r19,X
 1516 0630 1597      		sbiw r26,4+1
 1517 0632 8481      		ldd r24,Z+4
 1518 0634 9581      		ldd r25,Z+5
 1519               	.LVL200:
 1520 0636 821B      		sub r24,r18
 1521 0638 930B      		sbc r25,r19
 1522 063a 8417      		cp r24,r20
 1523 063c 9507      		cpc r25,r21
 1524 063e 00F0      		brlo .L150
 1525               	.LVL201:
 1526 0640 8081      		ld r24,Z
 1527 0642 9181      		ldd r25,Z+1
 1528 0644 0097      		sbiw r24,0
 1529 0646 01F0      		breq .L150
 1530 0648 6D91      		ld r22,X+
 1531 064a 7C91      		ld r23,X
 1532 064c 6115      		cp r22,__zero_reg__
 1533 064e 7105      		cpc r23,__zero_reg__
 1534 0650 01F0      		breq .L150
 1535               	.LM150:
 1536 0652 840F      		add r24,r20
 1537 0654 951F      		adc r25,r21
 1538 0656 A901      		movw r20,r18
 1539               	.LVL202:
 1540 0658 0E94 0000 		call strncmp
 1541               	.LVL203:
 1542 065c 9C01      		movw r18,r24
 1543 065e 80E0      		ldi r24,lo8(0)
 1544 0660 232B      		or r18,r19
 1545 0662 01F4      		brne .L152
 1546 0664 81E0      		ldi r24,lo8(1)
 1547 0666 0895      		ret
 1548               	.LVL204:
 1549               	.L150:
 1550 0668 80E0      		ldi r24,lo8(0)
 1551               	.L152:
 1552               	.LM151:
 1553 066a 0895      		ret
 1554               	.LFE134:
 1556               	.global	_ZNK6String10startsWithERKS_
 1558               	_ZNK6String10startsWithERKS_:
 1559               	.LFB133:
 1560               	.LM152:
 1561               	.LVL205:
 1562               	/* prologue: function */
 1563               	/* frame size = 0 */
 1564 066c FC01      		movw r30,r24
 1565 066e DB01      		movw r26,r22
 1566               	.LM153:
 1567 0670 2481      		ldd r18,Z+4
 1568 0672 3581      		ldd r19,Z+5
 1569 0674 1496      		adiw r26,4
 1570 0676 8D91      		ld r24,X+
 1571 0678 9C91      		ld r25,X
 1572 067a 1597      		sbiw r26,4+1
 1573               	.LVL206:
 1574 067c 2817      		cp r18,r24
 1575 067e 3907      		cpc r19,r25
 1576 0680 00F4      		brsh .L155
 1577               	.LVL207:
 1578 0682 80E0      		ldi r24,lo8(0)
 1579 0684 0895      		ret
 1580               	.L155:
 1581               	.LM154:
 1582 0686 CF01      		movw r24,r30
 1583 0688 40E0      		ldi r20,lo8(0)
 1584 068a 50E0      		ldi r21,hi8(0)
 1585 068c 0E94 0000 		call _ZNK6String10startsWithERKS_j
 1586               	.LVL208:
 1587               	.LM155:
 1588 0690 0895      		ret
 1589               	.LFE133:
 1591               	.global	_ZN6String12changeBufferEj
 1593               	_ZN6String12changeBufferEj:
 1594               	.LFB96:
 1595               	.LM156:
 1596               	.LVL209:
 1597 0692 0F93      		push r16
 1598 0694 1F93      		push r17
 1599 0696 CF93      		push r28
 1600 0698 DF93      		push r29
 1601               	/* prologue: function */
 1602               	/* frame size = 0 */
 1603 069a EC01      		movw r28,r24
 1604 069c 8B01      		movw r16,r22
 1605               	.LBB104:
 1606               	.LM157:
 1607 069e 6F5F      		subi r22,lo8(-(1))
 1608 06a0 7F4F      		sbci r23,hi8(-(1))
 1609               	.LVL210:
 1610 06a2 8881      		ld r24,Y
 1611 06a4 9981      		ldd r25,Y+1
 1612               	.LVL211:
 1613 06a6 0E94 0000 		call realloc
 1614               	.LM158:
 1615 06aa 0097      		sbiw r24,0
 1616               	.LVL212:
 1617 06ac 01F4      		brne .L159
 1618 06ae 80E0      		ldi r24,lo8(0)
 1619               	.LVL213:
 1620 06b0 00C0      		rjmp .L160
 1621               	.LVL214:
 1622               	.L159:
 1623               	.LM159:
 1624 06b2 9983      		std Y+1,r25
 1625 06b4 8883      		st Y,r24
 1626               	.LM160:
 1627 06b6 1B83      		std Y+3,r17
 1628 06b8 0A83      		std Y+2,r16
 1629 06ba 81E0      		ldi r24,lo8(1)
 1630               	.LVL215:
 1631               	.L160:
 1632               	/* epilogue start */
 1633               	.LBE104:
 1634               	.LM161:
 1635 06bc DF91      		pop r29
 1636 06be CF91      		pop r28
 1637               	.LVL216:
 1638 06c0 1F91      		pop r17
 1639 06c2 0F91      		pop r16
 1640               	.LVL217:
 1641 06c4 0895      		ret
 1642               	.LFE96:
 1644               	.global	_ZN6String7replaceERKS_S1_
 1646               	_ZN6String7replaceERKS_S1_:
 1647               	.LFB151:
 1648               	.LM162:
 1649               	.LVL218:
 1650 06c6 2F92      		push r2
 1651 06c8 3F92      		push r3
 1652 06ca 4F92      		push r4
 1653 06cc 5F92      		push r5
 1654 06ce 6F92      		push r6
 1655 06d0 7F92      		push r7
 1656 06d2 8F92      		push r8
 1657 06d4 9F92      		push r9
 1658 06d6 AF92      		push r10
 1659 06d8 BF92      		push r11
 1660 06da CF92      		push r12
 1661 06dc DF92      		push r13
 1662 06de EF92      		push r14
 1663 06e0 FF92      		push r15
 1664 06e2 0F93      		push r16
 1665 06e4 1F93      		push r17
 1666 06e6 CF93      		push r28
 1667 06e8 DF93      		push r29
 1668               	/* prologue: function */
 1669               	/* frame size = 0 */
 1670 06ea 5C01      		movw r10,r24
 1671 06ec 2B01      		movw r4,r22
 1672 06ee 4A01      		movw r8,r20
 1673               	.LBB105:
 1674               	.LM163:
 1675 06f0 DC01      		movw r26,r24
 1676 06f2 1496      		adiw r26,4
 1677 06f4 0D91      		ld r16,X+
 1678 06f6 1C91      		ld r17,X
 1679 06f8 1597      		sbiw r26,4+1
 1680               	.LVL219:
 1681 06fa 0115      		cp r16,__zero_reg__
 1682 06fc 1105      		cpc r17,__zero_reg__
 1683 06fe 01F4      		brne .+2
 1684 0700 00C0      		rjmp .L178
 1685               	.LVL220:
 1686 0702 FB01      		movw r30,r22
 1687 0704 C480      		ldd r12,Z+4
 1688 0706 D580      		ldd r13,Z+5
 1689 0708 C114      		cp r12,__zero_reg__
 1690 070a D104      		cpc r13,__zero_reg__
 1691 070c 01F4      		brne .+2
 1692 070e 00C0      		rjmp .L178
 1693               	.LVL221:
 1694               	.LM164:
 1695 0710 DA01      		movw r26,r20
 1696 0712 1496      		adiw r26,4
 1697 0714 6D90      		ld r6,X+
 1698 0716 7C90      		ld r7,X
 1699 0718 1597      		sbiw r26,4+1
 1700 071a 6C18      		sub r6,r12
 1701 071c 7D08      		sbc r7,r13
 1702               	.LM165:
 1703 071e FC01      		movw r30,r24
 1704 0720 E080      		ld r14,Z
 1705 0722 F180      		ldd r15,Z+1
 1706               	.LVL222:
 1707               	.LM166:
 1708 0724 6114      		cp r6,__zero_reg__
 1709 0726 7104      		cpc r7,__zero_reg__
 1710 0728 01F0      		breq .L179
 1711               	.LVL223:
 1712 072a 00C0      		rjmp .L182
 1713               	.LVL224:
 1714               	.L167:
 1715               	.LM167:
 1716 072c D401      		movw r26,r8
 1717 072e 6C91      		ld r22,X
 1718 0730 1196      		adiw r26,1
 1719 0732 7C91      		ld r23,X
 1720 0734 1197      		sbiw r26,1
 1721 0736 1496      		adiw r26,4
 1722 0738 4D91      		ld r20,X+
 1723 073a 5C91      		ld r21,X
 1724 073c 1597      		sbiw r26,4+1
 1725 073e 8C2F      		mov r24,r28
 1726               	.LVL225:
 1727 0740 0E94 0000 		call memcpy
 1728               	.LM168:
 1729 0744 F401      		movw r30,r8
 1730 0746 E480      		ldd r14,Z+4
 1731 0748 F580      		ldd r15,Z+5
 1732 074a EC0E      		add r14,r28
 1733 074c FD1E      		adc r15,r29
 1734               	.LVL226:
 1735               	.L179:
 1736               	.LM169:
 1737 074e D201      		movw r26,r4
 1738 0750 6D91      		ld r22,X+
 1739 0752 7C91      		ld r23,X
 1740 0754 C701      		movw r24,r14
 1741 0756 0E94 0000 		call strstr
 1742 075a EC01      		movw r28,r24
 1743               	.LVL227:
 1744 075c 0097      		sbiw r24,0
 1745               	.LVL228:
 1746 075e 01F4      		brne .L167
 1747 0760 00C0      		rjmp .L178
 1748               	.LVL229:
 1749               	.L182:
 1750               	.LM170:
 1751 0762 77FE      		sbrs r7,7
 1752 0764 00C0      		rjmp .L168
 1753 0766 6701      		movw r12,r14
 1754               	.LVL230:
 1755 0768 00C0      		rjmp .L169
 1756               	.LVL231:
 1757               	.L168:
 1758               	.LBB106:
 1759               	.LM171:
 1760 076a FB01      		movw r30,r22
 1761 076c 2080      		ld r2,Z
 1762 076e 3180      		ldd r3,Z+1
 1763 0770 E801      		movw r28,r16
 1764 0772 00C0      		rjmp .L170
 1765               	.LVL232:
 1766               	.L173:
 1767               	.LBE106:
 1768               	.LBB107:
 1769               	.LBB108:
 1770               	.LM172:
 1771 0774 8E01      		movw r16,r28
 1772               	.LVL233:
 1773 0776 0E19      		sub r16,r14
 1774 0778 1F09      		sbc r17,r15
 1775               	.LM173:
 1776 077a C601      		movw r24,r12
 1777               	.LVL234:
 1778 077c B701      		movw r22,r14
 1779               	.LVL235:
 1780 077e A801      		movw r20,r16
 1781               	.LVL236:
 1782 0780 0E94 0000 		call memcpy
 1783               	.LM174:
 1784 0784 0C0D      		add r16,r12
 1785 0786 1D1D      		adc r17,r13
 1786               	.LVL237:
 1787               	.LM175:
 1788 0788 D401      		movw r26,r8
 1789 078a 6C91      		ld r22,X
 1790 078c 1196      		adiw r26,1
 1791 078e 7C91      		ld r23,X
 1792 0790 1197      		sbiw r26,1
 1793 0792 1496      		adiw r26,4
 1794 0794 4D91      		ld r20,X+
 1795 0796 5C91      		ld r21,X
 1796 0798 1597      		sbiw r26,4+1
 1797 079a C801      		movw r24,r16
 1798               	.LVL238:
 1799 079c 0E94 0000 		call memcpy
 1800               	.LM176:
 1801 07a0 F401      		movw r30,r8
 1802 07a2 C480      		ldd r12,Z+4
 1803 07a4 D580      		ldd r13,Z+5
 1804               	.LVL239:
 1805 07a6 C00E      		add r12,r16
 1806 07a8 D11E      		adc r13,r17
 1807               	.LM177:
 1808 07aa D201      		movw r26,r4
 1809 07ac 1496      		adiw r26,4
 1810 07ae ED90      		ld r14,X+
 1811 07b0 FC90      		ld r15,X
 1812 07b2 1597      		sbiw r26,4+1
 1813               	.LVL240:
 1814 07b4 EC0E      		add r14,r28
 1815 07b6 FD1E      		adc r15,r29
 1816               	.LM178:
 1817 07b8 F501      		movw r30,r10
 1818 07ba 8481      		ldd r24,Z+4
 1819 07bc 9581      		ldd r25,Z+5
 1820 07be 860D      		add r24,r6
 1821 07c0 971D      		adc r25,r7
 1822 07c2 9583      		std Z+5,r25
 1823 07c4 8483      		std Z+4,r24
 1824               	.LVL241:
 1825               	.L169:
 1826               	.LBE108:
 1827               	.LM179:
 1828 07c6 D201      		movw r26,r4
 1829 07c8 6D91      		ld r22,X+
 1830 07ca 7C91      		ld r23,X
 1831 07cc C701      		movw r24,r14
 1832 07ce 0E94 0000 		call strstr
 1833 07d2 EC01      		movw r28,r24
 1834               	.LVL242:
 1835 07d4 0097      		sbiw r24,0
 1836               	.LVL243:
 1837 07d6 01F4      		brne .L173
 1838               	.LM180:
 1839 07d8 C601      		movw r24,r12
 1840               	.LVL244:
 1841 07da B701      		movw r22,r14
 1842 07dc 0E94 0000 		call strcpy
 1843 07e0 00C0      		rjmp .L178
 1844               	.LVL245:
 1845               	.L174:
 1846               	.LBE107:
 1847               	.LBB109:
 1848               	.LM181:
 1849 07e2 7B01      		movw r14,r22
 1850 07e4 EC0C      		add r14,r12
 1851 07e6 FD1C      		adc r15,r13
 1852               	.LM182:
 1853 07e8 C60D      		add r28,r6
 1854 07ea D71D      		adc r29,r7
 1855               	.LVL246:
 1856               	.L170:
 1857               	.LM183:
 1858 07ec C701      		movw r24,r14
 1859 07ee B101      		movw r22,r2
 1860               	.LVL247:
 1861 07f0 0E94 0000 		call strstr
 1862 07f4 BC01      		movw r22,r24
 1863 07f6 0097      		sbiw r24,0
 1864               	.LVL248:
 1865 07f8 01F4      		brne .L174
 1866               	.LM184:
 1867 07fa C017      		cp r28,r16
 1868 07fc D107      		cpc r29,r17
 1869 07fe 01F4      		brne .+2
 1870 0800 00C0      		rjmp .L178
 1871               	.LVL249:
 1872               	.LM185:
 1873 0802 F501      		movw r30,r10
 1874 0804 8281      		ldd r24,Z+2
 1875 0806 9381      		ldd r25,Z+3
 1876               	.LVL250:
 1877 0808 8C17      		cp r24,r28
 1878 080a 9D07      		cpc r25,r29
 1879 080c 00F0      		brlo .+2
 1880 080e 00C0      		rjmp .L175
 1881               	.LVL251:
 1882 0810 C501      		movw r24,r10
 1883 0812 BE01      		movw r22,r28
 1884 0814 0E94 0000 		call _ZN6String12changeBufferEj
 1885 0818 8823      		tst r24
 1886 081a 01F4      		brne .L175
 1887 081c 00C0      		rjmp .L178
 1888               	.LVL252:
 1889               	.L183:
 1890               	.LM186:
 1891 081e C501      		movw r24,r10
 1892 0820 B201      		movw r22,r4
 1893 0822 A901      		movw r20,r18
 1894               	.LVL253:
 1895 0824 0E94 0000 		call _ZNK6String11lastIndexOfERKS_j
 1896 0828 EC01      		movw r28,r24
 1897               	.LVL254:
 1898 082a 97FD      		sbrc r25,7
 1899 082c 00C0      		rjmp .L178
 1900               	.LVL255:
 1901               	.LM187:
 1902 082e D501      		movw r26,r10
 1903 0830 6D91      		ld r22,X+
 1904 0832 7C91      		ld r23,X
 1905 0834 1197      		sbiw r26,1
 1906               	.LVL256:
 1907 0836 F201      		movw r30,r4
 1908 0838 8481      		ldd r24,Z+4
 1909 083a 9581      		ldd r25,Z+5
 1910               	.LVL257:
 1911 083c 8C0F      		add r24,r28
 1912 083e 9D1F      		adc r25,r29
 1913               	.LM188:
 1914 0840 680F      		add r22,r24
 1915 0842 791F      		adc r23,r25
 1916 0844 1496      		adiw r26,4
 1917 0846 4D91      		ld r20,X+
 1918 0848 5C91      		ld r21,X
 1919 084a 1597      		sbiw r26,4+1
 1920 084c 481B      		sub r20,r24
 1921 084e 590B      		sbc r21,r25
 1922 0850 CB01      		movw r24,r22
 1923 0852 860D      		add r24,r6
 1924 0854 971D      		adc r25,r7
 1925 0856 0E94 0000 		call memmove
 1926               	.LVL258:
 1927               	.LM189:
 1928 085a D501      		movw r26,r10
 1929 085c 1496      		adiw r26,4
 1930 085e 8D91      		ld r24,X+
 1931 0860 9C91      		ld r25,X
 1932 0862 1597      		sbiw r26,4+1
 1933 0864 860D      		add r24,r6
 1934 0866 971D      		adc r25,r7
 1935 0868 1596      		adiw r26,4+1
 1936 086a 9C93      		st X,r25
 1937 086c 8E93      		st -X,r24
 1938 086e 1497      		sbiw r26,4
 1939               	.LM190:
 1940 0870 ED91      		ld r30,X+
 1941 0872 FC91      		ld r31,X
 1942 0874 1197      		sbiw r26,1
 1943 0876 E80F      		add r30,r24
 1944 0878 F91F      		adc r31,r25
 1945 087a 1082      		st Z,__zero_reg__
 1946               	.LM191:
 1947 087c 2D91      		ld r18,X+
 1948 087e 3C91      		ld r19,X
 1949 0880 2C0F      		add r18,r28
 1950 0882 3D1F      		adc r19,r29
 1951 0884 F401      		movw r30,r8
 1952 0886 6081      		ld r22,Z
 1953 0888 7181      		ldd r23,Z+1
 1954 088a 4481      		ldd r20,Z+4
 1955 088c 5581      		ldd r21,Z+5
 1956 088e C901      		movw r24,r18
 1957 0890 0E94 0000 		call memcpy
 1958               	.LM192:
 1959 0894 9E01      		movw r18,r28
 1960 0896 00C0      		rjmp .L181
 1961               	.LVL259:
 1962               	.L175:
 1963               	.LM193:
 1964 0898 D501      		movw r26,r10
 1965 089a 1496      		adiw r26,4
 1966 089c 2D91      		ld r18,X+
 1967 089e 3C91      		ld r19,X
 1968 08a0 1597      		sbiw r26,4+1
 1969               	.LVL260:
 1970               	.L181:
 1971 08a2 2150      		subi r18,lo8(-(-1))
 1972 08a4 3040      		sbci r19,hi8(-(-1))
 1973               	.LM194:
 1974 08a6 37FF      		sbrs r19,7
 1975 08a8 00C0      		rjmp .L183
 1976               	.LVL261:
 1977               	.L178:
 1978               	/* epilogue start */
 1979               	.LBE109:
 1980               	.LBE105:
 1981               	.LM195:
 1982 08aa DF91      		pop r29
 1983 08ac CF91      		pop r28
 1984 08ae 1F91      		pop r17
 1985 08b0 0F91      		pop r16
 1986               	.LVL262:
 1987 08b2 FF90      		pop r15
 1988 08b4 EF90      		pop r14
 1989               	.LVL263:
 1990 08b6 DF90      		pop r13
 1991 08b8 CF90      		pop r12
 1992               	.LVL264:
 1993 08ba BF90      		pop r11
 1994 08bc AF90      		pop r10
 1995               	.LVL265:
 1996 08be 9F90      		pop r9
 1997 08c0 8F90      		pop r8
 1998               	.LVL266:
 1999 08c2 7F90      		pop r7
 2000 08c4 6F90      		pop r6
 2001 08c6 5F90      		pop r5
 2002 08c8 4F90      		pop r4
 2003               	.LVL267:
 2004 08ca 3F90      		pop r3
 2005 08cc 2F90      		pop r2
 2006 08ce 0895      		ret
 2007               	.LFE151:
 2009               	.global	_ZN6String7reserveEj
 2011               	_ZN6String7reserveEj:
 2012               	.LFB95:
 2013               	.LM196:
 2014               	.LVL268:
 2015 08d0 CF93      		push r28
 2016 08d2 DF93      		push r29
 2017               	/* prologue: function */
 2018               	/* frame size = 0 */
 2019 08d4 EC01      		movw r28,r24
 2020               	.LM197:
 2021 08d6 8881      		ld r24,Y
 2022 08d8 9981      		ldd r25,Y+1
 2023               	.LVL269:
 2024 08da 892B      		or r24,r25
 2025 08dc 01F0      		breq .L185
 2026 08de 8A81      		ldd r24,Y+2
 2027 08e0 9B81      		ldd r25,Y+3
 2028 08e2 8617      		cp r24,r22
 2029 08e4 9707      		cpc r25,r23
 2030 08e6 00F4      		brsh .L186
 2031               	.L185:
 2032               	.LM198:
 2033 08e8 CE01      		movw r24,r28
 2034 08ea 0E94 0000 		call _ZN6String12changeBufferEj
 2035               	.LVL270:
 2036 08ee 8823      		tst r24
 2037 08f0 01F0      		breq .L188
 2038               	.LM199:
 2039 08f2 8C81      		ldd r24,Y+4
 2040 08f4 9D81      		ldd r25,Y+5
 2041 08f6 892B      		or r24,r25
 2042 08f8 01F4      		brne .L186
 2043 08fa E881      		ld r30,Y
 2044 08fc F981      		ldd r31,Y+1
 2045 08fe 1082      		st Z,__zero_reg__
 2046               	.LVL271:
 2047               	.L186:
 2048 0900 81E0      		ldi r24,lo8(1)
 2049               	.L188:
 2050               	/* epilogue start */
 2051               	.LM200:
 2052 0902 DF91      		pop r29
 2053 0904 CF91      		pop r28
 2054               	.LVL272:
 2055 0906 0895      		ret
 2056               	.LFE95:
 2058               	.global	_ZN6String6concatEPK19__FlashStringHelper
 2060               	_ZN6String6concatEPK19__FlashStringHelper:
 2061               	.LFB113:
 2062               	.LM201:
 2063               	.LVL273:
 2064 0908 EF92      		push r14
 2065 090a FF92      		push r15
 2066 090c 0F93      		push r16
 2067 090e 1F93      		push r17
 2068 0910 CF93      		push r28
 2069 0912 DF93      		push r29
 2070               	/* prologue: function */
 2071               	/* frame size = 0 */
 2072 0914 7C01      		movw r14,r24
 2073 0916 8B01      		movw r16,r22
 2074               	.LBB110:
 2075               	.LM202:
 2076 0918 6115      		cp r22,__zero_reg__
 2077 091a 7105      		cpc r23,__zero_reg__
 2078 091c 01F0      		breq .L191
 2079               	.LVL274:
 2080               	.LM203:
 2081 091e CB01      		movw r24,r22
 2082               	.LVL275:
 2083 0920 0E94 0000 		call strlen_P
 2084               	.LM204:
 2085 0924 0097      		sbiw r24,0
 2086 0926 01F0      		breq .L195
 2087               	.L192:
 2088               	.LM205:
 2089 0928 F701      		movw r30,r14
 2090 092a C481      		ldd r28,Z+4
 2091 092c D581      		ldd r29,Z+5
 2092               	.LVL276:
 2093 092e C80F      		add r28,r24
 2094 0930 D91F      		adc r29,r25
 2095               	.LM206:
 2096 0932 C701      		movw r24,r14
 2097 0934 BE01      		movw r22,r28
 2098 0936 0E94 0000 		call _ZN6String7reserveEj
 2099 093a 8823      		tst r24
 2100 093c 01F0      		breq .L191
 2101               	.LM207:
 2102 093e F701      		movw r30,r14
 2103 0940 8081      		ld r24,Z
 2104 0942 9181      		ldd r25,Z+1
 2105 0944 2481      		ldd r18,Z+4
 2106 0946 3581      		ldd r19,Z+5
 2107 0948 820F      		add r24,r18
 2108 094a 931F      		adc r25,r19
 2109 094c B801      		movw r22,r16
 2110               	.LVL277:
 2111 094e 0E94 0000 		call strcpy_P
 2112               	.LM208:
 2113 0952 F701      		movw r30,r14
 2114 0954 D583      		std Z+5,r29
 2115 0956 C483      		std Z+4,r28
 2116               	.LVL278:
 2117               	.L195:
 2118 0958 81E0      		ldi r24,lo8(1)
 2119 095a 00C0      		rjmp .L193
 2120               	.LVL279:
 2121               	.L191:
 2122               	.LM209:
 2123 095c 80E0      		ldi r24,lo8(0)
 2124               	.L193:
 2125               	/* epilogue start */
 2126               	.LBE110:
 2127               	.LM210:
 2128 095e DF91      		pop r29
 2129 0960 CF91      		pop r28
 2130               	.LVL280:
 2131 0962 1F91      		pop r17
 2132 0964 0F91      		pop r16
 2133               	.LVL281:
 2134 0966 FF90      		pop r15
 2135 0968 EF90      		pop r14
 2136               	.LVL282:
 2137 096a 0895      		ret
 2138               	.LFE113:
 2140               	.global	_ZN6String6concatEPKcj
 2142               	_ZN6String6concatEPKcj:
 2143               	.LFB103:
 2144               	.LM211:
 2145               	.LVL283:
 2146 096c EF92      		push r14
 2147 096e FF92      		push r15
 2148 0970 0F93      		push r16
 2149 0972 1F93      		push r17
 2150 0974 CF93      		push r28
 2151 0976 DF93      		push r29
 2152               	/* prologue: function */
 2153               	/* frame size = 0 */
 2154 0978 EC01      		movw r28,r24
 2155 097a 7B01      		movw r14,r22
 2156               	.LBB111:
 2157               	.LM212:
 2158 097c 6C81      		ldd r22,Y+4
 2159 097e 7D81      		ldd r23,Y+5
 2160               	.LVL284:
 2161               	.LM213:
 2162 0980 E114      		cp r14,__zero_reg__
 2163 0982 F104      		cpc r15,__zero_reg__
 2164 0984 01F0      		breq .L197
 2165               	.LVL285:
 2166               	.LM214:
 2167 0986 4115      		cp r20,__zero_reg__
 2168 0988 5105      		cpc r21,__zero_reg__
 2169 098a 01F0      		breq .L201
 2170               	.L198:
 2171               	.LM215:
 2172 098c 8A01      		movw r16,r20
 2173               	.LVL286:
 2174 098e 060F      		add r16,r22
 2175 0990 171F      		adc r17,r23
 2176               	.LM216:
 2177 0992 B801      		movw r22,r16
 2178 0994 0E94 0000 		call _ZN6String7reserveEj
 2179               	.LVL287:
 2180 0998 8823      		tst r24
 2181 099a 01F0      		breq .L197
 2182               	.LM217:
 2183 099c 8881      		ld r24,Y
 2184 099e 9981      		ldd r25,Y+1
 2185 09a0 2C81      		ldd r18,Y+4
 2186 09a2 3D81      		ldd r19,Y+5
 2187 09a4 820F      		add r24,r18
 2188 09a6 931F      		adc r25,r19
 2189 09a8 B701      		movw r22,r14
 2190 09aa 0E94 0000 		call strcpy
 2191               	.LM218:
 2192 09ae 1D83      		std Y+5,r17
 2193 09b0 0C83      		std Y+4,r16
 2194               	.LVL288:
 2195               	.L201:
 2196 09b2 81E0      		ldi r24,lo8(1)
 2197 09b4 00C0      		rjmp .L199
 2198               	.LVL289:
 2199               	.L197:
 2200               	.LM219:
 2201 09b6 80E0      		ldi r24,lo8(0)
 2202               	.L199:
 2203               	/* epilogue start */
 2204               	.LBE111:
 2205               	.LM220:
 2206 09b8 DF91      		pop r29
 2207 09ba CF91      		pop r28
 2208               	.LVL290:
 2209 09bc 1F91      		pop r17
 2210 09be 0F91      		pop r16
 2211               	.LVL291:
 2212 09c0 FF90      		pop r15
 2213 09c2 EF90      		pop r14
 2214               	.LVL292:
 2215 09c4 0895      		ret
 2216               	.LFE103:
 2218               	.global	_ZN6String6concatEd
 2220               	_ZN6String6concatEd:
 2221               	.LFB112:
 2222               	.LM221:
 2223               	.LVL293:
 2224 09c6 EF92      		push r14
 2225 09c8 FF92      		push r15
 2226 09ca 0F93      		push r16
 2227 09cc 1F93      		push r17
 2228 09ce DF93      		push r29
 2229 09d0 CF93      		push r28
 2230 09d2 CDB7      		in r28,__SP_L__
 2231 09d4 DEB7      		in r29,__SP_H__
 2232 09d6 6497      		sbiw r28,20
 2233 09d8 0FB6      		in __tmp_reg__,__SREG__
 2234 09da F894      		cli
 2235 09dc DEBF      		out __SP_H__,r29
 2236 09de 0FBE      		out __SREG__,__tmp_reg__
 2237 09e0 CDBF      		out __SP_L__,r28
 2238               	/* prologue: function */
 2239               	/* frame size = 20 */
 2240 09e2 7C01      		movw r14,r24
 2241               	.LBB112:
 2242               	.LM222:
 2243 09e4 CB01      		movw r24,r22
 2244 09e6 BA01      		movw r22,r20
 2245 09e8 44E0      		ldi r20,lo8(4)
 2246               	.LVL294:
 2247 09ea 22E0      		ldi r18,lo8(2)
 2248 09ec 8E01      		movw r16,r28
 2249 09ee 0F5F      		subi r16,lo8(-(1))
 2250 09f0 1F4F      		sbci r17,hi8(-(1))
 2251 09f2 0E94 0000 		call dtostrf
 2252               	.LVL295:
 2253 09f6 BC01      		movw r22,r24
 2254               	.LM223:
 2255 09f8 DC01      		movw r26,r24
 2256               	.LVL296:
 2257 09fa 0D90      		ld __tmp_reg__,X+
 2258 09fc 0020      		tst __tmp_reg__
 2259 09fe 01F4      		brne .-6
 2260 0a00 1197      		sbiw r26,1
 2261 0a02 A81B      		sub r26,r24
 2262 0a04 B90B      		sbc r27,r25
 2263 0a06 C701      		movw r24,r14
 2264               	.LVL297:
 2265 0a08 AD01      		movw r20,r26
 2266 0a0a 0E94 0000 		call _ZN6String6concatEPKcj
 2267               	/* epilogue start */
 2268               	.LBE112:
 2269               	.LM224:
 2270 0a0e 6496      		adiw r28,20
 2271 0a10 0FB6      		in __tmp_reg__,__SREG__
 2272 0a12 F894      		cli
 2273 0a14 DEBF      		out __SP_H__,r29
 2274 0a16 0FBE      		out __SREG__,__tmp_reg__
 2275 0a18 CDBF      		out __SP_L__,r28
 2276 0a1a CF91      		pop r28
 2277 0a1c DF91      		pop r29
 2278 0a1e 1F91      		pop r17
 2279 0a20 0F91      		pop r16
 2280 0a22 FF90      		pop r15
 2281 0a24 EF90      		pop r14
 2282               	.LVL298:
 2283 0a26 0895      		ret
 2284               	.LFE112:
 2286               	.global	_ZN6String6concatEf
 2288               	_ZN6String6concatEf:
 2289               	.LFB111:
 2290               	.LM225:
 2291               	.LVL299:
 2292 0a28 EF92      		push r14
 2293 0a2a FF92      		push r15
 2294 0a2c 0F93      		push r16
 2295 0a2e 1F93      		push r17
 2296 0a30 DF93      		push r29
 2297 0a32 CF93      		push r28
 2298 0a34 CDB7      		in r28,__SP_L__
 2299 0a36 DEB7      		in r29,__SP_H__
 2300 0a38 6497      		sbiw r28,20
 2301 0a3a 0FB6      		in __tmp_reg__,__SREG__
 2302 0a3c F894      		cli
 2303 0a3e DEBF      		out __SP_H__,r29
 2304 0a40 0FBE      		out __SREG__,__tmp_reg__
 2305 0a42 CDBF      		out __SP_L__,r28
 2306               	/* prologue: function */
 2307               	/* frame size = 20 */
 2308 0a44 7C01      		movw r14,r24
 2309               	.LBB113:
 2310               	.LM226:
 2311 0a46 CB01      		movw r24,r22
 2312 0a48 BA01      		movw r22,r20
 2313 0a4a 44E0      		ldi r20,lo8(4)
 2314               	.LVL300:
 2315 0a4c 22E0      		ldi r18,lo8(2)
 2316 0a4e 8E01      		movw r16,r28
 2317 0a50 0F5F      		subi r16,lo8(-(1))
 2318 0a52 1F4F      		sbci r17,hi8(-(1))
 2319 0a54 0E94 0000 		call dtostrf
 2320               	.LVL301:
 2321 0a58 BC01      		movw r22,r24
 2322               	.LM227:
 2323 0a5a DC01      		movw r26,r24
 2324               	.LVL302:
 2325 0a5c 0D90      		ld __tmp_reg__,X+
 2326 0a5e 0020      		tst __tmp_reg__
 2327 0a60 01F4      		brne .-6
 2328 0a62 1197      		sbiw r26,1
 2329 0a64 A81B      		sub r26,r24
 2330 0a66 B90B      		sbc r27,r25
 2331 0a68 C701      		movw r24,r14
 2332               	.LVL303:
 2333 0a6a AD01      		movw r20,r26
 2334 0a6c 0E94 0000 		call _ZN6String6concatEPKcj
 2335               	/* epilogue start */
 2336               	.LBE113:
 2337               	.LM228:
 2338 0a70 6496      		adiw r28,20
 2339 0a72 0FB6      		in __tmp_reg__,__SREG__
 2340 0a74 F894      		cli
 2341 0a76 DEBF      		out __SP_H__,r29
 2342 0a78 0FBE      		out __SREG__,__tmp_reg__
 2343 0a7a CDBF      		out __SP_L__,r28
 2344 0a7c CF91      		pop r28
 2345 0a7e DF91      		pop r29
 2346 0a80 1F91      		pop r17
 2347 0a82 0F91      		pop r16
 2348 0a84 FF90      		pop r15
 2349 0a86 EF90      		pop r14
 2350               	.LVL304:
 2351 0a88 0895      		ret
 2352               	.LFE111:
 2354               	.global	_ZN6String6concatEm
 2356               	_ZN6String6concatEm:
 2357               	.LFB110:
 2358               	.LM229:
 2359               	.LVL305:
 2360 0a8a EF92      		push r14
 2361 0a8c FF92      		push r15
 2362 0a8e 0F93      		push r16
 2363 0a90 1F93      		push r17
 2364 0a92 DF93      		push r29
 2365 0a94 CF93      		push r28
 2366 0a96 CDB7      		in r28,__SP_L__
 2367 0a98 DEB7      		in r29,__SP_H__
 2368 0a9a 2D97      		sbiw r28,13
 2369 0a9c 0FB6      		in __tmp_reg__,__SREG__
 2370 0a9e F894      		cli
 2371 0aa0 DEBF      		out __SP_H__,r29
 2372 0aa2 0FBE      		out __SREG__,__tmp_reg__
 2373 0aa4 CDBF      		out __SP_L__,r28
 2374               	/* prologue: function */
 2375               	/* frame size = 13 */
 2376 0aa6 7C01      		movw r14,r24
 2377               	.LBB114:
 2378               	.LM230:
 2379 0aa8 CB01      		movw r24,r22
 2380 0aaa BA01      		movw r22,r20
 2381 0aac 8E01      		movw r16,r28
 2382 0aae 0F5F      		subi r16,lo8(-(1))
 2383 0ab0 1F4F      		sbci r17,hi8(-(1))
 2384 0ab2 A801      		movw r20,r16
 2385               	.LVL306:
 2386 0ab4 2AE0      		ldi r18,lo8(10)
 2387 0ab6 30E0      		ldi r19,hi8(10)
 2388 0ab8 0E94 0000 		call ultoa
 2389               	.LVL307:
 2390               	.LM231:
 2391 0abc F801      		movw r30,r16
 2392 0abe 0190      		ld __tmp_reg__,Z+
 2393 0ac0 0020      		tst __tmp_reg__
 2394 0ac2 01F4      		brne .-6
 2395 0ac4 3197      		sbiw r30,1
 2396 0ac6 E01B      		sub r30,r16
 2397 0ac8 F10B      		sbc r31,r17
 2398 0aca C701      		movw r24,r14
 2399 0acc B801      		movw r22,r16
 2400 0ace AF01      		movw r20,r30
 2401 0ad0 0E94 0000 		call _ZN6String6concatEPKcj
 2402               	/* epilogue start */
 2403               	.LBE114:
 2404               	.LM232:
 2405 0ad4 2D96      		adiw r28,13
 2406 0ad6 0FB6      		in __tmp_reg__,__SREG__
 2407 0ad8 F894      		cli
 2408 0ada DEBF      		out __SP_H__,r29
 2409 0adc 0FBE      		out __SREG__,__tmp_reg__
 2410 0ade CDBF      		out __SP_L__,r28
 2411 0ae0 CF91      		pop r28
 2412 0ae2 DF91      		pop r29
 2413 0ae4 1F91      		pop r17
 2414 0ae6 0F91      		pop r16
 2415 0ae8 FF90      		pop r15
 2416 0aea EF90      		pop r14
 2417               	.LVL308:
 2418 0aec 0895      		ret
 2419               	.LFE110:
 2421               	.global	_ZN6String6concatEl
 2423               	_ZN6String6concatEl:
 2424               	.LFB109:
 2425               	.LM233:
 2426               	.LVL309:
 2427 0aee EF92      		push r14
 2428 0af0 FF92      		push r15
 2429 0af2 0F93      		push r16
 2430 0af4 1F93      		push r17
 2431 0af6 DF93      		push r29
 2432 0af8 CF93      		push r28
 2433 0afa CDB7      		in r28,__SP_L__
 2434 0afc DEB7      		in r29,__SP_H__
 2435 0afe 2E97      		sbiw r28,14
 2436 0b00 0FB6      		in __tmp_reg__,__SREG__
 2437 0b02 F894      		cli
 2438 0b04 DEBF      		out __SP_H__,r29
 2439 0b06 0FBE      		out __SREG__,__tmp_reg__
 2440 0b08 CDBF      		out __SP_L__,r28
 2441               	/* prologue: function */
 2442               	/* frame size = 14 */
 2443 0b0a 7C01      		movw r14,r24
 2444               	.LBB115:
 2445               	.LM234:
 2446 0b0c CB01      		movw r24,r22
 2447 0b0e BA01      		movw r22,r20
 2448 0b10 8E01      		movw r16,r28
 2449 0b12 0F5F      		subi r16,lo8(-(1))
 2450 0b14 1F4F      		sbci r17,hi8(-(1))
 2451 0b16 A801      		movw r20,r16
 2452               	.LVL310:
 2453 0b18 2AE0      		ldi r18,lo8(10)
 2454 0b1a 30E0      		ldi r19,hi8(10)
 2455 0b1c 0E94 0000 		call ltoa
 2456               	.LVL311:
 2457               	.LM235:
 2458 0b20 F801      		movw r30,r16
 2459 0b22 0190      		ld __tmp_reg__,Z+
 2460 0b24 0020      		tst __tmp_reg__
 2461 0b26 01F4      		brne .-6
 2462 0b28 3197      		sbiw r30,1
 2463 0b2a E01B      		sub r30,r16
 2464 0b2c F10B      		sbc r31,r17
 2465 0b2e C701      		movw r24,r14
 2466 0b30 B801      		movw r22,r16
 2467 0b32 AF01      		movw r20,r30
 2468 0b34 0E94 0000 		call _ZN6String6concatEPKcj
 2469               	/* epilogue start */
 2470               	.LBE115:
 2471               	.LM236:
 2472 0b38 2E96      		adiw r28,14
 2473 0b3a 0FB6      		in __tmp_reg__,__SREG__
 2474 0b3c F894      		cli
 2475 0b3e DEBF      		out __SP_H__,r29
 2476 0b40 0FBE      		out __SREG__,__tmp_reg__
 2477 0b42 CDBF      		out __SP_L__,r28
 2478 0b44 CF91      		pop r28
 2479 0b46 DF91      		pop r29
 2480 0b48 1F91      		pop r17
 2481 0b4a 0F91      		pop r16
 2482 0b4c FF90      		pop r15
 2483 0b4e EF90      		pop r14
 2484               	.LVL312:
 2485 0b50 0895      		ret
 2486               	.LFE109:
 2488               	.global	_ZN6String6concatEj
 2490               	_ZN6String6concatEj:
 2491               	.LFB108:
 2492               	.LM237:
 2493               	.LVL313:
 2494 0b52 EF92      		push r14
 2495 0b54 FF92      		push r15
 2496 0b56 0F93      		push r16
 2497 0b58 1F93      		push r17
 2498 0b5a DF93      		push r29
 2499 0b5c CF93      		push r28
 2500 0b5e CDB7      		in r28,__SP_L__
 2501 0b60 DEB7      		in r29,__SP_H__
 2502 0b62 2797      		sbiw r28,7
 2503 0b64 0FB6      		in __tmp_reg__,__SREG__
 2504 0b66 F894      		cli
 2505 0b68 DEBF      		out __SP_H__,r29
 2506 0b6a 0FBE      		out __SREG__,__tmp_reg__
 2507 0b6c CDBF      		out __SP_L__,r28
 2508               	/* prologue: function */
 2509               	/* frame size = 7 */
 2510 0b6e 7C01      		movw r14,r24
 2511 0b70 CB01      		movw r24,r22
 2512               	.LVL314:
 2513               	.LBB116:
 2514               	.LM238:
 2515 0b72 8E01      		movw r16,r28
 2516 0b74 0F5F      		subi r16,lo8(-(1))
 2517 0b76 1F4F      		sbci r17,hi8(-(1))
 2518 0b78 B801      		movw r22,r16
 2519               	.LVL315:
 2520 0b7a 4AE0      		ldi r20,lo8(10)
 2521 0b7c 50E0      		ldi r21,hi8(10)
 2522 0b7e 0E94 0000 		call utoa
 2523               	.LVL316:
 2524               	.LM239:
 2525 0b82 F801      		movw r30,r16
 2526 0b84 0190      		ld __tmp_reg__,Z+
 2527 0b86 0020      		tst __tmp_reg__
 2528 0b88 01F4      		brne .-6
 2529 0b8a 3197      		sbiw r30,1
 2530 0b8c E01B      		sub r30,r16
 2531 0b8e F10B      		sbc r31,r17
 2532 0b90 C701      		movw r24,r14
 2533 0b92 B801      		movw r22,r16
 2534 0b94 AF01      		movw r20,r30
 2535 0b96 0E94 0000 		call _ZN6String6concatEPKcj
 2536               	/* epilogue start */
 2537               	.LBE116:
 2538               	.LM240:
 2539 0b9a 2796      		adiw r28,7
 2540 0b9c 0FB6      		in __tmp_reg__,__SREG__
 2541 0b9e F894      		cli
 2542 0ba0 DEBF      		out __SP_H__,r29
 2543 0ba2 0FBE      		out __SREG__,__tmp_reg__
 2544 0ba4 CDBF      		out __SP_L__,r28
 2545 0ba6 CF91      		pop r28
 2546 0ba8 DF91      		pop r29
 2547 0baa 1F91      		pop r17
 2548 0bac 0F91      		pop r16
 2549 0bae FF90      		pop r15
 2550 0bb0 EF90      		pop r14
 2551               	.LVL317:
 2552 0bb2 0895      		ret
 2553               	.LFE108:
 2555               	.global	_ZN6String6concatEi
 2557               	_ZN6String6concatEi:
 2558               	.LFB107:
 2559               	.LM241:
 2560               	.LVL318:
 2561 0bb4 EF92      		push r14
 2562 0bb6 FF92      		push r15
 2563 0bb8 0F93      		push r16
 2564 0bba 1F93      		push r17
 2565 0bbc DF93      		push r29
 2566 0bbe CF93      		push r28
 2567 0bc0 CDB7      		in r28,__SP_L__
 2568 0bc2 DEB7      		in r29,__SP_H__
 2569 0bc4 2897      		sbiw r28,8
 2570 0bc6 0FB6      		in __tmp_reg__,__SREG__
 2571 0bc8 F894      		cli
 2572 0bca DEBF      		out __SP_H__,r29
 2573 0bcc 0FBE      		out __SREG__,__tmp_reg__
 2574 0bce CDBF      		out __SP_L__,r28
 2575               	/* prologue: function */
 2576               	/* frame size = 8 */
 2577 0bd0 7C01      		movw r14,r24
 2578 0bd2 CB01      		movw r24,r22
 2579               	.LVL319:
 2580               	.LBB117:
 2581               	.LM242:
 2582 0bd4 8E01      		movw r16,r28
 2583 0bd6 0F5F      		subi r16,lo8(-(1))
 2584 0bd8 1F4F      		sbci r17,hi8(-(1))
 2585 0bda B801      		movw r22,r16
 2586               	.LVL320:
 2587 0bdc 4AE0      		ldi r20,lo8(10)
 2588 0bde 50E0      		ldi r21,hi8(10)
 2589 0be0 0E94 0000 		call itoa
 2590               	.LVL321:
 2591               	.LM243:
 2592 0be4 F801      		movw r30,r16
 2593 0be6 0190      		ld __tmp_reg__,Z+
 2594 0be8 0020      		tst __tmp_reg__
 2595 0bea 01F4      		brne .-6
 2596 0bec 3197      		sbiw r30,1
 2597 0bee E01B      		sub r30,r16
 2598 0bf0 F10B      		sbc r31,r17
 2599 0bf2 C701      		movw r24,r14
 2600 0bf4 B801      		movw r22,r16
 2601 0bf6 AF01      		movw r20,r30
 2602 0bf8 0E94 0000 		call _ZN6String6concatEPKcj
 2603               	/* epilogue start */
 2604               	.LBE117:
 2605               	.LM244:
 2606 0bfc 2896      		adiw r28,8
 2607 0bfe 0FB6      		in __tmp_reg__,__SREG__
 2608 0c00 F894      		cli
 2609 0c02 DEBF      		out __SP_H__,r29
 2610 0c04 0FBE      		out __SREG__,__tmp_reg__
 2611 0c06 CDBF      		out __SP_L__,r28
 2612 0c08 CF91      		pop r28
 2613 0c0a DF91      		pop r29
 2614 0c0c 1F91      		pop r17
 2615 0c0e 0F91      		pop r16
 2616 0c10 FF90      		pop r15
 2617 0c12 EF90      		pop r14
 2618               	.LVL322:
 2619 0c14 0895      		ret
 2620               	.LFE107:
 2622               	.global	_ZN6String6concatEh
 2624               	_ZN6String6concatEh:
 2625               	.LFB106:
 2626               	.LM245:
 2627               	.LVL323:
 2628 0c16 EF92      		push r14
 2629 0c18 FF92      		push r15
 2630 0c1a 0F93      		push r16
 2631 0c1c 1F93      		push r17
 2632 0c1e DF93      		push r29
 2633 0c20 CF93      		push r28
 2634 0c22 00D0      		rcall .
 2635 0c24 00D0      		rcall .
 2636 0c26 CDB7      		in r28,__SP_L__
 2637 0c28 DEB7      		in r29,__SP_H__
 2638               	/* prologue: function */
 2639               	/* frame size = 4 */
 2640 0c2a 7C01      		movw r14,r24
 2641 0c2c 862F      		mov r24,r22
 2642               	.LVL324:
 2643               	.LBB118:
 2644               	.LM246:
 2645 0c2e 90E0      		ldi r25,lo8(0)
 2646 0c30 8E01      		movw r16,r28
 2647 0c32 0F5F      		subi r16,lo8(-(1))
 2648 0c34 1F4F      		sbci r17,hi8(-(1))
 2649 0c36 B801      		movw r22,r16
 2650               	.LVL325:
 2651 0c38 4AE0      		ldi r20,lo8(10)
 2652 0c3a 50E0      		ldi r21,hi8(10)
 2653 0c3c 0E94 0000 		call itoa
 2654               	.LVL326:
 2655               	.LM247:
 2656 0c40 F801      		movw r30,r16
 2657 0c42 0190      		ld __tmp_reg__,Z+
 2658 0c44 0020      		tst __tmp_reg__
 2659 0c46 01F4      		brne .-6
 2660 0c48 3197      		sbiw r30,1
 2661 0c4a E01B      		sub r30,r16
 2662 0c4c F10B      		sbc r31,r17
 2663 0c4e C701      		movw r24,r14
 2664 0c50 B801      		movw r22,r16
 2665 0c52 AF01      		movw r20,r30
 2666 0c54 0E94 0000 		call _ZN6String6concatEPKcj
 2667               	/* epilogue start */
 2668               	.LBE118:
 2669               	.LM248:
 2670 0c58 0F90      		pop __tmp_reg__
 2671 0c5a 0F90      		pop __tmp_reg__
 2672 0c5c 0F90      		pop __tmp_reg__
 2673 0c5e 0F90      		pop __tmp_reg__
 2674 0c60 CF91      		pop r28
 2675 0c62 DF91      		pop r29
 2676 0c64 1F91      		pop r17
 2677 0c66 0F91      		pop r16
 2678 0c68 FF90      		pop r15
 2679 0c6a EF90      		pop r14
 2680               	.LVL327:
 2681 0c6c 0895      		ret
 2682               	.LFE106:
 2684               	.global	_ZN6String6concatEc
 2686               	_ZN6String6concatEc:
 2687               	.LFB105:
 2688               	.LM249:
 2689               	.LVL328:
 2690 0c6e DF93      		push r29
 2691 0c70 CF93      		push r28
 2692 0c72 00D0      		rcall .
 2693 0c74 CDB7      		in r28,__SP_L__
 2694 0c76 DEB7      		in r29,__SP_H__
 2695               	/* prologue: function */
 2696               	/* frame size = 2 */
 2697               	.LBB119:
 2698               	.LM250:
 2699 0c78 6983      		std Y+1,r22
 2700               	.LM251:
 2701 0c7a 1A82      		std Y+2,__zero_reg__
 2702               	.LM252:
 2703 0c7c BE01      		movw r22,r28
 2704               	.LVL329:
 2705 0c7e 6F5F      		subi r22,lo8(-(1))
 2706 0c80 7F4F      		sbci r23,hi8(-(1))
 2707 0c82 41E0      		ldi r20,lo8(1)
 2708 0c84 50E0      		ldi r21,hi8(1)
 2709 0c86 0E94 0000 		call _ZN6String6concatEPKcj
 2710               	.LVL330:
 2711               	/* epilogue start */
 2712               	.LBE119:
 2713               	.LM253:
 2714 0c8a 0F90      		pop __tmp_reg__
 2715 0c8c 0F90      		pop __tmp_reg__
 2716 0c8e CF91      		pop r28
 2717 0c90 DF91      		pop r29
 2718 0c92 0895      		ret
 2719               	.LFE105:
 2721               	.global	_ZN6String6concatEPKc
 2723               	_ZN6String6concatEPKc:
 2724               	.LFB104:
 2725               	.LM254:
 2726               	.LVL331:
 2727               	/* prologue: function */
 2728               	/* frame size = 0 */
 2729               	.LM255:
 2730 0c94 6115      		cp r22,__zero_reg__
 2731 0c96 7105      		cpc r23,__zero_reg__
 2732 0c98 01F4      		brne .L219
 2733 0c9a 80E0      		ldi r24,lo8(0)
 2734               	.LVL332:
 2735 0c9c 0895      		ret
 2736               	.LVL333:
 2737               	.L219:
 2738               	.LM256:
 2739 0c9e DB01      		movw r26,r22
 2740 0ca0 0D90      		ld __tmp_reg__,X+
 2741 0ca2 0020      		tst __tmp_reg__
 2742 0ca4 01F4      		brne .-6
 2743 0ca6 1197      		sbiw r26,1
 2744 0ca8 A61B      		sub r26,r22
 2745 0caa B70B      		sbc r27,r23
 2746 0cac AD01      		movw r20,r26
 2747 0cae 0E94 0000 		call _ZN6String6concatEPKcj
 2748               	.LVL334:
 2749               	.LM257:
 2750 0cb2 0895      		ret
 2751               	.LFE104:
 2753               	.global	_ZN6String6concatERKS_
 2755               	_ZN6String6concatERKS_:
 2756               	.LFB102:
 2757               	.LM258:
 2758               	.LVL335:
 2759               	/* prologue: function */
 2760               	/* frame size = 0 */
 2761 0cb4 FB01      		movw r30,r22
 2762               	.LM259:
 2763 0cb6 6081      		ld r22,Z
 2764 0cb8 7181      		ldd r23,Z+1
 2765               	.LVL336:
 2766 0cba 4481      		ldd r20,Z+4
 2767 0cbc 5581      		ldd r21,Z+5
 2768 0cbe 0E94 0000 		call _ZN6String6concatEPKcj
 2769               	.LVL337:
 2770               	/* epilogue start */
 2771               	.LM260:
 2772 0cc2 0895      		ret
 2773               	.LFE102:
 2775               	.global	_ZN6String10invalidateEv
 2777               	_ZN6String10invalidateEv:
 2778               	.LFB94:
 2779               	.LM261:
 2780               	.LVL338:
 2781 0cc4 CF93      		push r28
 2782 0cc6 DF93      		push r29
 2783               	/* prologue: function */
 2784               	/* frame size = 0 */
 2785 0cc8 EC01      		movw r28,r24
 2786               	.LM262:
 2787 0cca 8881      		ld r24,Y
 2788 0ccc 9981      		ldd r25,Y+1
 2789               	.LVL339:
 2790 0cce 0097      		sbiw r24,0
 2791 0cd0 01F0      		breq .L225
 2792 0cd2 0E94 0000 		call free
 2793               	.L225:
 2794               	.LM263:
 2795 0cd6 1982      		std Y+1,__zero_reg__
 2796 0cd8 1882      		st Y,__zero_reg__
 2797               	.LM264:
 2798 0cda 1D82      		std Y+5,__zero_reg__
 2799 0cdc 1C82      		std Y+4,__zero_reg__
 2800 0cde 1B82      		std Y+3,__zero_reg__
 2801 0ce0 1A82      		std Y+2,__zero_reg__
 2802               	/* epilogue start */
 2803               	.LM265:
 2804 0ce2 DF91      		pop r29
 2805 0ce4 CF91      		pop r28
 2806               	.LVL340:
 2807 0ce6 0895      		ret
 2808               	.LFE94:
 2810               	.global	_ZplRK15StringSumHelperPK19__FlashStringHelper
 2812               	_ZplRK15StringSumHelperPK19__FlashStringHelper:
 2813               	.LFB124:
 2814               	.LM266:
 2815               	.LVL341:
 2816 0ce8 0F93      		push r16
 2817 0cea 1F93      		push r17
 2818               	/* prologue: function */
 2819               	/* frame size = 0 */
 2820 0cec 182F      		mov r17,r24
 2821 0cee 092F      		mov r16,r25
 2822               	.LVL342:
 2823               	.LBB120:
 2824               	.LM267:
 2825 0cf0 0E94 0000 		call _ZN6String6concatEPK19__FlashStringHelper
 2826               	.LVL343:
 2827 0cf4 8823      		tst r24
 2828 0cf6 01F4      		brne .L228
 2829 0cf8 812F      		mov r24,r17
 2830 0cfa 902F      		mov r25,r16
 2831 0cfc 0E94 0000 		call _ZN6String10invalidateEv
 2832               	.L228:
 2833               	.LBE120:
 2834               	.LM268:
 2835 0d00 812F      		mov r24,r17
 2836 0d02 902F      		mov r25,r16
 2837               	/* epilogue start */
 2838 0d04 1F91      		pop r17
 2839               	.LVL344:
 2840 0d06 0F91      		pop r16
 2841               	.LVL345:
 2842 0d08 0895      		ret
 2843               	.LFE124:
 2845               	.global	_ZplRK15StringSumHelperd
 2847               	_ZplRK15StringSumHelperd:
 2848               	.LFB123:
 2849               	.LM269:
 2850               	.LVL346:
 2851 0d0a 0F93      		push r16
 2852 0d0c 1F93      		push r17
 2853               	/* prologue: function */
 2854               	/* frame size = 0 */
 2855 0d0e 182F      		mov r17,r24
 2856 0d10 092F      		mov r16,r25
 2857               	.LVL347:
 2858               	.LBB121:
 2859               	.LM270:
 2860 0d12 0E94 0000 		call _ZN6String6concatEd
 2861               	.LVL348:
 2862 0d16 8823      		tst r24
 2863 0d18 01F4      		brne .L231
 2864 0d1a 812F      		mov r24,r17
 2865 0d1c 902F      		mov r25,r16
 2866 0d1e 0E94 0000 		call _ZN6String10invalidateEv
 2867               	.L231:
 2868               	.LBE121:
 2869               	.LM271:
 2870 0d22 812F      		mov r24,r17
 2871 0d24 902F      		mov r25,r16
 2872               	/* epilogue start */
 2873 0d26 1F91      		pop r17
 2874               	.LVL349:
 2875 0d28 0F91      		pop r16
 2876               	.LVL350:
 2877 0d2a 0895      		ret
 2878               	.LFE123:
 2880               	.global	_ZplRK15StringSumHelperf
 2882               	_ZplRK15StringSumHelperf:
 2883               	.LFB122:
 2884               	.LM272:
 2885               	.LVL351:
 2886 0d2c 0F93      		push r16
 2887 0d2e 1F93      		push r17
 2888               	/* prologue: function */
 2889               	/* frame size = 0 */
 2890 0d30 182F      		mov r17,r24
 2891 0d32 092F      		mov r16,r25
 2892               	.LVL352:
 2893               	.LBB122:
 2894               	.LM273:
 2895 0d34 0E94 0000 		call _ZN6String6concatEf
 2896               	.LVL353:
 2897 0d38 8823      		tst r24
 2898 0d3a 01F4      		brne .L234
 2899 0d3c 812F      		mov r24,r17
 2900 0d3e 902F      		mov r25,r16
 2901 0d40 0E94 0000 		call _ZN6String10invalidateEv
 2902               	.L234:
 2903               	.LBE122:
 2904               	.LM274:
 2905 0d44 812F      		mov r24,r17
 2906 0d46 902F      		mov r25,r16
 2907               	/* epilogue start */
 2908 0d48 1F91      		pop r17
 2909               	.LVL354:
 2910 0d4a 0F91      		pop r16
 2911               	.LVL355:
 2912 0d4c 0895      		ret
 2913               	.LFE122:
 2915               	.global	_ZplRK15StringSumHelperm
 2917               	_ZplRK15StringSumHelperm:
 2918               	.LFB121:
 2919               	.LM275:
 2920               	.LVL356:
 2921 0d4e 0F93      		push r16
 2922 0d50 1F93      		push r17
 2923               	/* prologue: function */
 2924               	/* frame size = 0 */
 2925 0d52 182F      		mov r17,r24
 2926 0d54 092F      		mov r16,r25
 2927               	.LVL357:
 2928               	.LBB123:
 2929               	.LM276:
 2930 0d56 0E94 0000 		call _ZN6String6concatEm
 2931               	.LVL358:
 2932 0d5a 8823      		tst r24
 2933 0d5c 01F4      		brne .L237
 2934 0d5e 812F      		mov r24,r17
 2935 0d60 902F      		mov r25,r16
 2936 0d62 0E94 0000 		call _ZN6String10invalidateEv
 2937               	.L237:
 2938               	.LBE123:
 2939               	.LM277:
 2940 0d66 812F      		mov r24,r17
 2941 0d68 902F      		mov r25,r16
 2942               	/* epilogue start */
 2943 0d6a 1F91      		pop r17
 2944               	.LVL359:
 2945 0d6c 0F91      		pop r16
 2946               	.LVL360:
 2947 0d6e 0895      		ret
 2948               	.LFE121:
 2950               	.global	_ZplRK15StringSumHelperl
 2952               	_ZplRK15StringSumHelperl:
 2953               	.LFB120:
 2954               	.LM278:
 2955               	.LVL361:
 2956 0d70 0F93      		push r16
 2957 0d72 1F93      		push r17
 2958               	/* prologue: function */
 2959               	/* frame size = 0 */
 2960 0d74 182F      		mov r17,r24
 2961 0d76 092F      		mov r16,r25
 2962               	.LVL362:
 2963               	.LBB124:
 2964               	.LM279:
 2965 0d78 0E94 0000 		call _ZN6String6concatEl
 2966               	.LVL363:
 2967 0d7c 8823      		tst r24
 2968 0d7e 01F4      		brne .L240
 2969 0d80 812F      		mov r24,r17
 2970 0d82 902F      		mov r25,r16
 2971 0d84 0E94 0000 		call _ZN6String10invalidateEv
 2972               	.L240:
 2973               	.LBE124:
 2974               	.LM280:
 2975 0d88 812F      		mov r24,r17
 2976 0d8a 902F      		mov r25,r16
 2977               	/* epilogue start */
 2978 0d8c 1F91      		pop r17
 2979               	.LVL364:
 2980 0d8e 0F91      		pop r16
 2981               	.LVL365:
 2982 0d90 0895      		ret
 2983               	.LFE120:
 2985               	.global	_ZplRK15StringSumHelperj
 2987               	_ZplRK15StringSumHelperj:
 2988               	.LFB119:
 2989               	.LM281:
 2990               	.LVL366:
 2991 0d92 0F93      		push r16
 2992 0d94 1F93      		push r17
 2993               	/* prologue: function */
 2994               	/* frame size = 0 */
 2995 0d96 182F      		mov r17,r24
 2996 0d98 092F      		mov r16,r25
 2997               	.LVL367:
 2998               	.LBB125:
 2999               	.LM282:
 3000 0d9a 0E94 0000 		call _ZN6String6concatEj
 3001               	.LVL368:
 3002 0d9e 8823      		tst r24
 3003 0da0 01F4      		brne .L243
 3004 0da2 812F      		mov r24,r17
 3005 0da4 902F      		mov r25,r16
 3006 0da6 0E94 0000 		call _ZN6String10invalidateEv
 3007               	.L243:
 3008               	.LBE125:
 3009               	.LM283:
 3010 0daa 812F      		mov r24,r17
 3011 0dac 902F      		mov r25,r16
 3012               	/* epilogue start */
 3013 0dae 1F91      		pop r17
 3014               	.LVL369:
 3015 0db0 0F91      		pop r16
 3016               	.LVL370:
 3017 0db2 0895      		ret
 3018               	.LFE119:
 3020               	.global	_ZplRK15StringSumHelperi
 3022               	_ZplRK15StringSumHelperi:
 3023               	.LFB118:
 3024               	.LM284:
 3025               	.LVL371:
 3026 0db4 0F93      		push r16
 3027 0db6 1F93      		push r17
 3028               	/* prologue: function */
 3029               	/* frame size = 0 */
 3030 0db8 182F      		mov r17,r24
 3031 0dba 092F      		mov r16,r25
 3032               	.LVL372:
 3033               	.LBB126:
 3034               	.LM285:
 3035 0dbc 0E94 0000 		call _ZN6String6concatEi
 3036               	.LVL373:
 3037 0dc0 8823      		tst r24
 3038 0dc2 01F4      		brne .L246
 3039 0dc4 812F      		mov r24,r17
 3040 0dc6 902F      		mov r25,r16
 3041 0dc8 0E94 0000 		call _ZN6String10invalidateEv
 3042               	.L246:
 3043               	.LBE126:
 3044               	.LM286:
 3045 0dcc 812F      		mov r24,r17
 3046 0dce 902F      		mov r25,r16
 3047               	/* epilogue start */
 3048 0dd0 1F91      		pop r17
 3049               	.LVL374:
 3050 0dd2 0F91      		pop r16
 3051               	.LVL375:
 3052 0dd4 0895      		ret
 3053               	.LFE118:
 3055               	.global	_ZplRK15StringSumHelperh
 3057               	_ZplRK15StringSumHelperh:
 3058               	.LFB117:
 3059               	.LM287:
 3060               	.LVL376:
 3061 0dd6 0F93      		push r16
 3062 0dd8 1F93      		push r17
 3063               	/* prologue: function */
 3064               	/* frame size = 0 */
 3065 0dda 182F      		mov r17,r24
 3066 0ddc 092F      		mov r16,r25
 3067               	.LVL377:
 3068               	.LBB127:
 3069               	.LM288:
 3070 0dde 0E94 0000 		call _ZN6String6concatEh
 3071               	.LVL378:
 3072 0de2 8823      		tst r24
 3073 0de4 01F4      		brne .L249
 3074 0de6 812F      		mov r24,r17
 3075 0de8 902F      		mov r25,r16
 3076 0dea 0E94 0000 		call _ZN6String10invalidateEv
 3077               	.L249:
 3078               	.LBE127:
 3079               	.LM289:
 3080 0dee 812F      		mov r24,r17
 3081 0df0 902F      		mov r25,r16
 3082               	/* epilogue start */
 3083 0df2 1F91      		pop r17
 3084               	.LVL379:
 3085 0df4 0F91      		pop r16
 3086               	.LVL380:
 3087 0df6 0895      		ret
 3088               	.LFE117:
 3090               	.global	_ZplRK15StringSumHelperc
 3092               	_ZplRK15StringSumHelperc:
 3093               	.LFB116:
 3094               	.LM290:
 3095               	.LVL381:
 3096 0df8 0F93      		push r16
 3097 0dfa 1F93      		push r17
 3098               	/* prologue: function */
 3099               	/* frame size = 0 */
 3100 0dfc 182F      		mov r17,r24
 3101 0dfe 092F      		mov r16,r25
 3102               	.LVL382:
 3103               	.LBB128:
 3104               	.LM291:
 3105 0e00 0E94 0000 		call _ZN6String6concatEc
 3106               	.LVL383:
 3107 0e04 8823      		tst r24
 3108 0e06 01F4      		brne .L252
 3109 0e08 812F      		mov r24,r17
 3110 0e0a 902F      		mov r25,r16
 3111 0e0c 0E94 0000 		call _ZN6String10invalidateEv
 3112               	.L252:
 3113               	.LBE128:
 3114               	.LM292:
 3115 0e10 812F      		mov r24,r17
 3116 0e12 902F      		mov r25,r16
 3117               	/* epilogue start */
 3118 0e14 1F91      		pop r17
 3119               	.LVL384:
 3120 0e16 0F91      		pop r16
 3121               	.LVL385:
 3122 0e18 0895      		ret
 3123               	.LFE116:
 3125               	.global	_ZplRK15StringSumHelperPKc
 3127               	_ZplRK15StringSumHelperPKc:
 3128               	.LFB115:
 3129               	.LM293:
 3130               	.LVL386:
 3131 0e1a 0F93      		push r16
 3132 0e1c 1F93      		push r17
 3133               	/* prologue: function */
 3134               	/* frame size = 0 */
 3135 0e1e 182F      		mov r17,r24
 3136 0e20 092F      		mov r16,r25
 3137               	.LVL387:
 3138               	.LBB129:
 3139               	.LM294:
 3140 0e22 6115      		cp r22,__zero_reg__
 3141 0e24 7105      		cpc r23,__zero_reg__
 3142 0e26 01F0      		breq .L255
 3143               	.LVL388:
 3144 0e28 DB01      		movw r26,r22
 3145 0e2a 0D90      		ld __tmp_reg__,X+
 3146 0e2c 0020      		tst __tmp_reg__
 3147 0e2e 01F4      		brne .-6
 3148 0e30 1197      		sbiw r26,1
 3149 0e32 A61B      		sub r26,r22
 3150 0e34 B70B      		sbc r27,r23
 3151 0e36 AD01      		movw r20,r26
 3152 0e38 0E94 0000 		call _ZN6String6concatEPKcj
 3153               	.LVL389:
 3154 0e3c 8823      		tst r24
 3155 0e3e 01F4      		brne .L256
 3156               	.LVL390:
 3157               	.L255:
 3158 0e40 812F      		mov r24,r17
 3159 0e42 902F      		mov r25,r16
 3160 0e44 0E94 0000 		call _ZN6String10invalidateEv
 3161               	.LVL391:
 3162               	.L256:
 3163               	.LBE129:
 3164               	.LM295:
 3165 0e48 812F      		mov r24,r17
 3166 0e4a 902F      		mov r25,r16
 3167               	/* epilogue start */
 3168 0e4c 1F91      		pop r17
 3169               	.LVL392:
 3170 0e4e 0F91      		pop r16
 3171               	.LVL393:
 3172 0e50 0895      		ret
 3173               	.LFE115:
 3175               	.global	_ZplRK15StringSumHelperRK6String
 3177               	_ZplRK15StringSumHelperRK6String:
 3178               	.LFB114:
 3179               	.LM296:
 3180               	.LVL394:
 3181 0e52 0F93      		push r16
 3182 0e54 1F93      		push r17
 3183               	/* prologue: function */
 3184               	/* frame size = 0 */
 3185 0e56 182F      		mov r17,r24
 3186 0e58 092F      		mov r16,r25
 3187               	.LVL395:
 3188 0e5a FB01      		movw r30,r22
 3189               	.LBB130:
 3190               	.LM297:
 3191 0e5c 6081      		ld r22,Z
 3192 0e5e 7181      		ldd r23,Z+1
 3193               	.LVL396:
 3194 0e60 4481      		ldd r20,Z+4
 3195 0e62 5581      		ldd r21,Z+5
 3196 0e64 0E94 0000 		call _ZN6String6concatEPKcj
 3197               	.LVL397:
 3198 0e68 8823      		tst r24
 3199 0e6a 01F4      		brne .L259
 3200 0e6c 812F      		mov r24,r17
 3201 0e6e 902F      		mov r25,r16
 3202 0e70 0E94 0000 		call _ZN6String10invalidateEv
 3203               	.L259:
 3204               	.LBE130:
 3205               	.LM298:
 3206 0e74 812F      		mov r24,r17
 3207 0e76 902F      		mov r25,r16
 3208               	/* epilogue start */
 3209 0e78 1F91      		pop r17
 3210               	.LVL398:
 3211 0e7a 0F91      		pop r16
 3212               	.LVL399:
 3213 0e7c 0895      		ret
 3214               	.LFE114:
 3216               	.global	_ZN6String4copyEPK19__FlashStringHelperj
 3218               	_ZN6String4copyEPK19__FlashStringHelperj:
 3219               	.LFB98:
 3220               	.LM299:
 3221               	.LVL400:
 3222 0e7e EF92      		push r14
 3223 0e80 FF92      		push r15
 3224 0e82 0F93      		push r16
 3225 0e84 1F93      		push r17
 3226 0e86 CF93      		push r28
 3227 0e88 DF93      		push r29
 3228               	/* prologue: function */
 3229               	/* frame size = 0 */
 3230 0e8a EC01      		movw r28,r24
 3231 0e8c 7B01      		movw r14,r22
 3232 0e8e 8A01      		movw r16,r20
 3233               	.LM300:
 3234 0e90 BA01      		movw r22,r20
 3235               	.LVL401:
 3236 0e92 0E94 0000 		call _ZN6String7reserveEj
 3237               	.LVL402:
 3238 0e96 8823      		tst r24
 3239 0e98 01F4      		brne .L262
 3240               	.LM301:
 3241 0e9a CE01      		movw r24,r28
 3242 0e9c 0E94 0000 		call _ZN6String10invalidateEv
 3243 0ea0 00C0      		rjmp .L263
 3244               	.L262:
 3245               	.LM302:
 3246 0ea2 1D83      		std Y+5,r17
 3247 0ea4 0C83      		std Y+4,r16
 3248               	.LM303:
 3249 0ea6 8881      		ld r24,Y
 3250 0ea8 9981      		ldd r25,Y+1
 3251 0eaa B701      		movw r22,r14
 3252 0eac 0E94 0000 		call strcpy_P
 3253               	.L263:
 3254               	.LM304:
 3255 0eb0 CE01      		movw r24,r28
 3256               	.LVL403:
 3257               	/* epilogue start */
 3258 0eb2 DF91      		pop r29
 3259 0eb4 CF91      		pop r28
 3260 0eb6 1F91      		pop r17
 3261 0eb8 0F91      		pop r16
 3262               	.LVL404:
 3263 0eba FF90      		pop r15
 3264 0ebc EF90      		pop r14
 3265               	.LVL405:
 3266 0ebe 0895      		ret
 3267               	.LFE98:
 3269               	.global	_ZN6StringaSEPK19__FlashStringHelper
 3271               	_ZN6StringaSEPK19__FlashStringHelper:
 3272               	.LFB101:
 3273               	.LM305:
 3274               	.LVL406:
 3275 0ec0 0F93      		push r16
 3276 0ec2 1F93      		push r17
 3277 0ec4 CF93      		push r28
 3278 0ec6 DF93      		push r29
 3279               	/* prologue: function */
 3280               	/* frame size = 0 */
 3281 0ec8 182F      		mov r17,r24
 3282 0eca 092F      		mov r16,r25
 3283               	.LVL407:
 3284 0ecc EB01      		movw r28,r22
 3285               	.LM306:
 3286 0ece 6115      		cp r22,__zero_reg__
 3287 0ed0 7105      		cpc r23,__zero_reg__
 3288 0ed2 01F0      		breq .L266
 3289               	.LVL408:
 3290 0ed4 CB01      		movw r24,r22
 3291 0ed6 0E94 0000 		call strlen_P
 3292               	.LVL409:
 3293 0eda AC01      		movw r20,r24
 3294 0edc 812F      		mov r24,r17
 3295 0ede 902F      		mov r25,r16
 3296 0ee0 BE01      		movw r22,r28
 3297 0ee2 0E94 0000 		call _ZN6String4copyEPK19__FlashStringHelperj
 3298 0ee6 00C0      		rjmp .L267
 3299               	.LVL410:
 3300               	.L266:
 3301               	.LM307:
 3302 0ee8 0E94 0000 		call _ZN6String10invalidateEv
 3303               	.LVL411:
 3304               	.L267:
 3305               	.LM308:
 3306 0eec 812F      		mov r24,r17
 3307 0eee 902F      		mov r25,r16
 3308               	/* epilogue start */
 3309 0ef0 DF91      		pop r29
 3310 0ef2 CF91      		pop r28
 3311               	.LVL412:
 3312 0ef4 1F91      		pop r17
 3313               	.LVL413:
 3314 0ef6 0F91      		pop r16
 3315               	.LVL414:
 3316 0ef8 0895      		ret
 3317               	.LFE101:
 3319               	.global	_ZN6StringC1EPK19__FlashStringHelper
 3321               	_ZN6StringC1EPK19__FlashStringHelper:
 3322               	.LFB65:
 3323               	.LM309:
 3324               	.LVL415:
 3325               	/* prologue: function */
 3326               	/* frame size = 0 */
 3327 0efa FC01      		movw r30,r24
 3328               	.LBB131:
 3329               	.LBB132:
 3330               	.LBB133:
 3331               	.LM310:
 3332 0efc 1182      		std Z+1,__zero_reg__
 3333 0efe 1082      		st Z,__zero_reg__
 3334               	.LM311:
 3335 0f00 1382      		std Z+3,__zero_reg__
 3336 0f02 1282      		std Z+2,__zero_reg__
 3337               	.LM312:
 3338 0f04 1582      		std Z+5,__zero_reg__
 3339 0f06 1482      		std Z+4,__zero_reg__
 3340               	.LBE133:
 3341               	.LBE132:
 3342               	.LM313:
 3343 0f08 0E94 0000 		call _ZN6StringaSEPK19__FlashStringHelper
 3344               	.LVL416:
 3345               	/* epilogue start */
 3346               	.LBE131:
 3347               	.LM314:
 3348 0f0c 0895      		ret
 3349               	.LFE65:
 3351               	.global	_ZN6StringC2EPK19__FlashStringHelper
 3353               	_ZN6StringC2EPK19__FlashStringHelper:
 3354               	.LFB64:
 3355               	.LM315:
 3356               	.LVL417:
 3357               	/* prologue: function */
 3358               	/* frame size = 0 */
 3359 0f0e FC01      		movw r30,r24
 3360               	.LBB134:
 3361               	.LBB135:
 3362               	.LBB136:
 3363               	.LM316:
 3364 0f10 1182      		std Z+1,__zero_reg__
 3365 0f12 1082      		st Z,__zero_reg__
 3366               	.LM317:
 3367 0f14 1382      		std Z+3,__zero_reg__
 3368 0f16 1282      		std Z+2,__zero_reg__
 3369               	.LM318:
 3370 0f18 1582      		std Z+5,__zero_reg__
 3371 0f1a 1482      		std Z+4,__zero_reg__
 3372               	.LBE136:
 3373               	.LBE135:
 3374               	.LM319:
 3375 0f1c 0E94 0000 		call _ZN6StringaSEPK19__FlashStringHelper
 3376               	.LVL418:
 3377               	/* epilogue start */
 3378               	.LBE134:
 3379               	.LM320:
 3380 0f20 0895      		ret
 3381               	.LFE64:
 3383               	.global	_ZN6String4copyEPKcj
 3385               	_ZN6String4copyEPKcj:
 3386               	.LFB97:
 3387               	.LM321:
 3388               	.LVL419:
 3389 0f22 EF92      		push r14
 3390 0f24 FF92      		push r15
 3391 0f26 0F93      		push r16
 3392 0f28 1F93      		push r17
 3393 0f2a CF93      		push r28
 3394 0f2c DF93      		push r29
 3395               	/* prologue: function */
 3396               	/* frame size = 0 */
 3397 0f2e EC01      		movw r28,r24
 3398 0f30 7B01      		movw r14,r22
 3399 0f32 8A01      		movw r16,r20
 3400               	.LM322:
 3401 0f34 BA01      		movw r22,r20
 3402               	.LVL420:
 3403 0f36 0E94 0000 		call _ZN6String7reserveEj
 3404               	.LVL421:
 3405 0f3a 8823      		tst r24
 3406 0f3c 01F4      		brne .L274
 3407               	.LM323:
 3408 0f3e CE01      		movw r24,r28
 3409 0f40 0E94 0000 		call _ZN6String10invalidateEv
 3410 0f44 00C0      		rjmp .L275
 3411               	.L274:
 3412               	.LM324:
 3413 0f46 1D83      		std Y+5,r17
 3414 0f48 0C83      		std Y+4,r16
 3415               	.LM325:
 3416 0f4a 8881      		ld r24,Y
 3417 0f4c 9981      		ldd r25,Y+1
 3418 0f4e B701      		movw r22,r14
 3419 0f50 0E94 0000 		call strcpy
 3420               	.L275:
 3421               	.LM326:
 3422 0f54 CE01      		movw r24,r28
 3423               	.LVL422:
 3424               	/* epilogue start */
 3425 0f56 DF91      		pop r29
 3426 0f58 CF91      		pop r28
 3427 0f5a 1F91      		pop r17
 3428 0f5c 0F91      		pop r16
 3429               	.LVL423:
 3430 0f5e FF90      		pop r15
 3431 0f60 EF90      		pop r14
 3432               	.LVL424:
 3433 0f62 0895      		ret
 3434               	.LFE97:
 3436               	.global	_ZN6StringC1EPKc
 3438               	_ZN6StringC1EPKc:
 3439               	.LFB59:
 3440               	.LM327:
 3441               	.LVL425:
 3442 0f64 CF93      		push r28
 3443 0f66 DF93      		push r29
 3444               	/* prologue: function */
 3445               	/* frame size = 0 */
 3446 0f68 EC01      		movw r28,r24
 3447               	.LBB137:
 3448               	.LBB138:
 3449               	.LBB139:
 3450               	.LM328:
 3451 0f6a 1982      		std Y+1,__zero_reg__
 3452 0f6c 1882      		st Y,__zero_reg__
 3453               	.LM329:
 3454 0f6e 1B82      		std Y+3,__zero_reg__
 3455 0f70 1A82      		std Y+2,__zero_reg__
 3456               	.LM330:
 3457 0f72 1D82      		std Y+5,__zero_reg__
 3458 0f74 1C82      		std Y+4,__zero_reg__
 3459               	.LBE139:
 3460               	.LBE138:
 3461               	.LM331:
 3462 0f76 6115      		cp r22,__zero_reg__
 3463 0f78 7105      		cpc r23,__zero_reg__
 3464 0f7a 01F0      		breq .L279
 3465               	.LVL426:
 3466 0f7c DB01      		movw r26,r22
 3467 0f7e 0D90      		ld __tmp_reg__,X+
 3468 0f80 0020      		tst __tmp_reg__
 3469 0f82 01F4      		brne .-6
 3470 0f84 1197      		sbiw r26,1
 3471 0f86 A61B      		sub r26,r22
 3472 0f88 B70B      		sbc r27,r23
 3473 0f8a AD01      		movw r20,r26
 3474 0f8c 0E94 0000 		call _ZN6String4copyEPKcj
 3475               	.LVL427:
 3476               	.L279:
 3477               	/* epilogue start */
 3478               	.LBE137:
 3479               	.LM332:
 3480 0f90 DF91      		pop r29
 3481 0f92 CF91      		pop r28
 3482               	.LVL428:
 3483 0f94 0895      		ret
 3484               	.LFE59:
 3486               	.global	_ZN6StringC2EPKc
 3488               	_ZN6StringC2EPKc:
 3489               	.LFB58:
 3490               	.LM333:
 3491               	.LVL429:
 3492 0f96 CF93      		push r28
 3493 0f98 DF93      		push r29
 3494               	/* prologue: function */
 3495               	/* frame size = 0 */
 3496 0f9a EC01      		movw r28,r24
 3497               	.LBB140:
 3498               	.LBB141:
 3499               	.LBB142:
 3500               	.LM334:
 3501 0f9c 1982      		std Y+1,__zero_reg__
 3502 0f9e 1882      		st Y,__zero_reg__
 3503               	.LM335:
 3504 0fa0 1B82      		std Y+3,__zero_reg__
 3505 0fa2 1A82      		std Y+2,__zero_reg__
 3506               	.LM336:
 3507 0fa4 1D82      		std Y+5,__zero_reg__
 3508 0fa6 1C82      		std Y+4,__zero_reg__
 3509               	.LBE142:
 3510               	.LBE141:
 3511               	.LM337:
 3512 0fa8 6115      		cp r22,__zero_reg__
 3513 0faa 7105      		cpc r23,__zero_reg__
 3514 0fac 01F0      		breq .L282
 3515               	.LVL430:
 3516 0fae DB01      		movw r26,r22
 3517 0fb0 0D90      		ld __tmp_reg__,X+
 3518 0fb2 0020      		tst __tmp_reg__
 3519 0fb4 01F4      		brne .-6
 3520 0fb6 1197      		sbiw r26,1
 3521 0fb8 A61B      		sub r26,r22
 3522 0fba B70B      		sbc r27,r23
 3523 0fbc AD01      		movw r20,r26
 3524 0fbe 0E94 0000 		call _ZN6String4copyEPKcj
 3525               	.LVL431:
 3526               	.L282:
 3527               	/* epilogue start */
 3528               	.LBE140:
 3529               	.LM338:
 3530 0fc2 DF91      		pop r29
 3531 0fc4 CF91      		pop r28
 3532               	.LVL432:
 3533 0fc6 0895      		ret
 3534               	.LFE58:
 3536               	.global	_ZN6StringaSEPKc
 3538               	_ZN6StringaSEPKc:
 3539               	.LFB100:
 3540               	.LM339:
 3541               	.LVL433:
 3542 0fc8 0F93      		push r16
 3543 0fca 1F93      		push r17
 3544               	/* prologue: function */
 3545               	/* frame size = 0 */
 3546 0fcc 182F      		mov r17,r24
 3547 0fce 092F      		mov r16,r25
 3548               	.LVL434:
 3549               	.LM340:
 3550 0fd0 6115      		cp r22,__zero_reg__
 3551 0fd2 7105      		cpc r23,__zero_reg__
 3552 0fd4 01F0      		breq .L284
 3553               	.LVL435:
 3554 0fd6 DB01      		movw r26,r22
 3555 0fd8 0D90      		ld __tmp_reg__,X+
 3556 0fda 0020      		tst __tmp_reg__
 3557 0fdc 01F4      		brne .-6
 3558 0fde 1197      		sbiw r26,1
 3559 0fe0 A61B      		sub r26,r22
 3560 0fe2 B70B      		sbc r27,r23
 3561 0fe4 AD01      		movw r20,r26
 3562 0fe6 0E94 0000 		call _ZN6String4copyEPKcj
 3563               	.LVL436:
 3564 0fea 00C0      		rjmp .L285
 3565               	.LVL437:
 3566               	.L284:
 3567               	.LM341:
 3568 0fec 0E94 0000 		call _ZN6String10invalidateEv
 3569               	.LVL438:
 3570               	.L285:
 3571               	.LM342:
 3572 0ff0 812F      		mov r24,r17
 3573 0ff2 902F      		mov r25,r16
 3574               	/* epilogue start */
 3575 0ff4 1F91      		pop r17
 3576               	.LVL439:
 3577 0ff6 0F91      		pop r16
 3578               	.LVL440:
 3579 0ff8 0895      		ret
 3580               	.LFE100:
 3582               	.global	_ZN6StringC1Edh
 3584               	_ZN6StringC1Edh:
 3585               	.LFB89:
 3586               	.LM343:
 3587               	.LVL441:
 3588 0ffa EF92      		push r14
 3589 0ffc FF92      		push r15
 3590 0ffe 0F93      		push r16
 3591 1000 1F93      		push r17
 3592 1002 DF93      		push r29
 3593 1004 CF93      		push r28
 3594 1006 CDB7      		in r28,__SP_L__
 3595 1008 DEB7      		in r29,__SP_H__
 3596 100a A197      		sbiw r28,33
 3597 100c 0FB6      		in __tmp_reg__,__SREG__
 3598 100e F894      		cli
 3599 1010 DEBF      		out __SP_H__,r29
 3600 1012 0FBE      		out __SREG__,__tmp_reg__
 3601 1014 CDBF      		out __SP_L__,r28
 3602               	/* prologue: function */
 3603               	/* frame size = 33 */
 3604 1016 7C01      		movw r14,r24
 3605 1018 CB01      		movw r24,r22
 3606 101a BA01      		movw r22,r20
 3607               	.LBB143:
 3608               	.LBB144:
 3609               	.LBB145:
 3610               	.LBB146:
 3611               	.LM344:
 3612 101c F701      		movw r30,r14
 3613 101e 1182      		std Z+1,__zero_reg__
 3614 1020 1082      		st Z,__zero_reg__
 3615               	.LM345:
 3616 1022 1382      		std Z+3,__zero_reg__
 3617 1024 1282      		std Z+2,__zero_reg__
 3618               	.LM346:
 3619 1026 1582      		std Z+5,__zero_reg__
 3620 1028 1482      		std Z+4,__zero_reg__
 3621               	.LBE146:
 3622               	.LBE145:
 3623               	.LM347:
 3624 102a 422F      		mov r20,r18
 3625               	.LVL442:
 3626 102c 4E5F      		subi r20,lo8(-(2))
 3627 102e 8E01      		movw r16,r28
 3628 1030 0F5F      		subi r16,lo8(-(1))
 3629 1032 1F4F      		sbci r17,hi8(-(1))
 3630 1034 0E94 0000 		call dtostrf
 3631               	.LVL443:
 3632 1038 BC01      		movw r22,r24
 3633 103a C701      		movw r24,r14
 3634 103c 0E94 0000 		call _ZN6StringaSEPKc
 3635               	/* epilogue start */
 3636               	.LBE144:
 3637               	.LBE143:
 3638               	.LM348:
 3639 1040 A196      		adiw r28,33
 3640 1042 0FB6      		in __tmp_reg__,__SREG__
 3641 1044 F894      		cli
 3642 1046 DEBF      		out __SP_H__,r29
 3643 1048 0FBE      		out __SREG__,__tmp_reg__
 3644 104a CDBF      		out __SP_L__,r28
 3645 104c CF91      		pop r28
 3646 104e DF91      		pop r29
 3647 1050 1F91      		pop r17
 3648 1052 0F91      		pop r16
 3649 1054 FF90      		pop r15
 3650 1056 EF90      		pop r14
 3651               	.LVL444:
 3652 1058 0895      		ret
 3653               	.LFE89:
 3655               	.global	_ZN6StringC2Edh
 3657               	_ZN6StringC2Edh:
 3658               	.LFB88:
 3659               	.LM349:
 3660               	.LVL445:
 3661 105a EF92      		push r14
 3662 105c FF92      		push r15
 3663 105e 0F93      		push r16
 3664 1060 1F93      		push r17
 3665 1062 DF93      		push r29
 3666 1064 CF93      		push r28
 3667 1066 CDB7      		in r28,__SP_L__
 3668 1068 DEB7      		in r29,__SP_H__
 3669 106a A197      		sbiw r28,33
 3670 106c 0FB6      		in __tmp_reg__,__SREG__
 3671 106e F894      		cli
 3672 1070 DEBF      		out __SP_H__,r29
 3673 1072 0FBE      		out __SREG__,__tmp_reg__
 3674 1074 CDBF      		out __SP_L__,r28
 3675               	/* prologue: function */
 3676               	/* frame size = 33 */
 3677 1076 7C01      		movw r14,r24
 3678 1078 CB01      		movw r24,r22
 3679 107a BA01      		movw r22,r20
 3680               	.LBB147:
 3681               	.LBB148:
 3682               	.LBB149:
 3683               	.LBB150:
 3684               	.LM350:
 3685 107c F701      		movw r30,r14
 3686 107e 1182      		std Z+1,__zero_reg__
 3687 1080 1082      		st Z,__zero_reg__
 3688               	.LM351:
 3689 1082 1382      		std Z+3,__zero_reg__
 3690 1084 1282      		std Z+2,__zero_reg__
 3691               	.LM352:
 3692 1086 1582      		std Z+5,__zero_reg__
 3693 1088 1482      		std Z+4,__zero_reg__
 3694               	.LBE150:
 3695               	.LBE149:
 3696               	.LM353:
 3697 108a 422F      		mov r20,r18
 3698               	.LVL446:
 3699 108c 4E5F      		subi r20,lo8(-(2))
 3700 108e 8E01      		movw r16,r28
 3701 1090 0F5F      		subi r16,lo8(-(1))
 3702 1092 1F4F      		sbci r17,hi8(-(1))
 3703 1094 0E94 0000 		call dtostrf
 3704               	.LVL447:
 3705 1098 BC01      		movw r22,r24
 3706 109a C701      		movw r24,r14
 3707 109c 0E94 0000 		call _ZN6StringaSEPKc
 3708               	/* epilogue start */
 3709               	.LBE148:
 3710               	.LBE147:
 3711               	.LM354:
 3712 10a0 A196      		adiw r28,33
 3713 10a2 0FB6      		in __tmp_reg__,__SREG__
 3714 10a4 F894      		cli
 3715 10a6 DEBF      		out __SP_H__,r29
 3716 10a8 0FBE      		out __SREG__,__tmp_reg__
 3717 10aa CDBF      		out __SP_L__,r28
 3718 10ac CF91      		pop r28
 3719 10ae DF91      		pop r29
 3720 10b0 1F91      		pop r17
 3721 10b2 0F91      		pop r16
 3722 10b4 FF90      		pop r15
 3723 10b6 EF90      		pop r14
 3724               	.LVL448:
 3725 10b8 0895      		ret
 3726               	.LFE88:
 3728               	.global	_ZN6StringC1Efh
 3730               	_ZN6StringC1Efh:
 3731               	.LFB86:
 3732               	.LM355:
 3733               	.LVL449:
 3734 10ba EF92      		push r14
 3735 10bc FF92      		push r15
 3736 10be 0F93      		push r16
 3737 10c0 1F93      		push r17
 3738 10c2 DF93      		push r29
 3739 10c4 CF93      		push r28
 3740 10c6 CDB7      		in r28,__SP_L__
 3741 10c8 DEB7      		in r29,__SP_H__
 3742 10ca A197      		sbiw r28,33
 3743 10cc 0FB6      		in __tmp_reg__,__SREG__
 3744 10ce F894      		cli
 3745 10d0 DEBF      		out __SP_H__,r29
 3746 10d2 0FBE      		out __SREG__,__tmp_reg__
 3747 10d4 CDBF      		out __SP_L__,r28
 3748               	/* prologue: function */
 3749               	/* frame size = 33 */
 3750 10d6 7C01      		movw r14,r24
 3751 10d8 CB01      		movw r24,r22
 3752 10da BA01      		movw r22,r20
 3753               	.LBB151:
 3754               	.LBB152:
 3755               	.LBB153:
 3756               	.LBB154:
 3757               	.LM356:
 3758 10dc F701      		movw r30,r14
 3759 10de 1182      		std Z+1,__zero_reg__
 3760 10e0 1082      		st Z,__zero_reg__
 3761               	.LM357:
 3762 10e2 1382      		std Z+3,__zero_reg__
 3763 10e4 1282      		std Z+2,__zero_reg__
 3764               	.LM358:
 3765 10e6 1582      		std Z+5,__zero_reg__
 3766 10e8 1482      		std Z+4,__zero_reg__
 3767               	.LBE154:
 3768               	.LBE153:
 3769               	.LM359:
 3770 10ea 422F      		mov r20,r18
 3771               	.LVL450:
 3772 10ec 4E5F      		subi r20,lo8(-(2))
 3773 10ee 8E01      		movw r16,r28
 3774 10f0 0F5F      		subi r16,lo8(-(1))
 3775 10f2 1F4F      		sbci r17,hi8(-(1))
 3776 10f4 0E94 0000 		call dtostrf
 3777               	.LVL451:
 3778 10f8 BC01      		movw r22,r24
 3779 10fa C701      		movw r24,r14
 3780 10fc 0E94 0000 		call _ZN6StringaSEPKc
 3781               	/* epilogue start */
 3782               	.LBE152:
 3783               	.LBE151:
 3784               	.LM360:
 3785 1100 A196      		adiw r28,33
 3786 1102 0FB6      		in __tmp_reg__,__SREG__
 3787 1104 F894      		cli
 3788 1106 DEBF      		out __SP_H__,r29
 3789 1108 0FBE      		out __SREG__,__tmp_reg__
 3790 110a CDBF      		out __SP_L__,r28
 3791 110c CF91      		pop r28
 3792 110e DF91      		pop r29
 3793 1110 1F91      		pop r17
 3794 1112 0F91      		pop r16
 3795 1114 FF90      		pop r15
 3796 1116 EF90      		pop r14
 3797               	.LVL452:
 3798 1118 0895      		ret
 3799               	.LFE86:
 3801               	.global	_ZN6StringC2Efh
 3803               	_ZN6StringC2Efh:
 3804               	.LFB85:
 3805               	.LM361:
 3806               	.LVL453:
 3807 111a EF92      		push r14
 3808 111c FF92      		push r15
 3809 111e 0F93      		push r16
 3810 1120 1F93      		push r17
 3811 1122 DF93      		push r29
 3812 1124 CF93      		push r28
 3813 1126 CDB7      		in r28,__SP_L__
 3814 1128 DEB7      		in r29,__SP_H__
 3815 112a A197      		sbiw r28,33
 3816 112c 0FB6      		in __tmp_reg__,__SREG__
 3817 112e F894      		cli
 3818 1130 DEBF      		out __SP_H__,r29
 3819 1132 0FBE      		out __SREG__,__tmp_reg__
 3820 1134 CDBF      		out __SP_L__,r28
 3821               	/* prologue: function */
 3822               	/* frame size = 33 */
 3823 1136 7C01      		movw r14,r24
 3824 1138 CB01      		movw r24,r22
 3825 113a BA01      		movw r22,r20
 3826               	.LBB155:
 3827               	.LBB156:
 3828               	.LBB157:
 3829               	.LBB158:
 3830               	.LM362:
 3831 113c F701      		movw r30,r14
 3832 113e 1182      		std Z+1,__zero_reg__
 3833 1140 1082      		st Z,__zero_reg__
 3834               	.LM363:
 3835 1142 1382      		std Z+3,__zero_reg__
 3836 1144 1282      		std Z+2,__zero_reg__
 3837               	.LM364:
 3838 1146 1582      		std Z+5,__zero_reg__
 3839 1148 1482      		std Z+4,__zero_reg__
 3840               	.LBE158:
 3841               	.LBE157:
 3842               	.LM365:
 3843 114a 422F      		mov r20,r18
 3844               	.LVL454:
 3845 114c 4E5F      		subi r20,lo8(-(2))
 3846 114e 8E01      		movw r16,r28
 3847 1150 0F5F      		subi r16,lo8(-(1))
 3848 1152 1F4F      		sbci r17,hi8(-(1))
 3849 1154 0E94 0000 		call dtostrf
 3850               	.LVL455:
 3851 1158 BC01      		movw r22,r24
 3852 115a C701      		movw r24,r14
 3853 115c 0E94 0000 		call _ZN6StringaSEPKc
 3854               	/* epilogue start */
 3855               	.LBE156:
 3856               	.LBE155:
 3857               	.LM366:
 3858 1160 A196      		adiw r28,33
 3859 1162 0FB6      		in __tmp_reg__,__SREG__
 3860 1164 F894      		cli
 3861 1166 DEBF      		out __SP_H__,r29
 3862 1168 0FBE      		out __SREG__,__tmp_reg__
 3863 116a CDBF      		out __SP_L__,r28
 3864 116c CF91      		pop r28
 3865 116e DF91      		pop r29
 3866 1170 1F91      		pop r17
 3867 1172 0F91      		pop r16
 3868 1174 FF90      		pop r15
 3869 1176 EF90      		pop r14
 3870               	.LVL456:
 3871 1178 0895      		ret
 3872               	.LFE85:
 3874               	.global	_ZN6StringC1Emh
 3876               	_ZN6StringC1Emh:
 3877               	.LFB83:
 3878               	.LM367:
 3879               	.LVL457:
 3880 117a EF92      		push r14
 3881 117c FF92      		push r15
 3882 117e 0F93      		push r16
 3883 1180 1F93      		push r17
 3884 1182 DF93      		push r29
 3885 1184 CF93      		push r28
 3886 1186 CDB7      		in r28,__SP_L__
 3887 1188 DEB7      		in r29,__SP_H__
 3888 118a A197      		sbiw r28,33
 3889 118c 0FB6      		in __tmp_reg__,__SREG__
 3890 118e F894      		cli
 3891 1190 DEBF      		out __SP_H__,r29
 3892 1192 0FBE      		out __SREG__,__tmp_reg__
 3893 1194 CDBF      		out __SP_L__,r28
 3894               	/* prologue: function */
 3895               	/* frame size = 33 */
 3896 1196 8C01      		movw r16,r24
 3897               	.LBB159:
 3898               	.LBB160:
 3899               	.LBB161:
 3900               	.LBB162:
 3901               	.LM368:
 3902 1198 FC01      		movw r30,r24
 3903 119a 1182      		std Z+1,__zero_reg__
 3904 119c 1082      		st Z,__zero_reg__
 3905               	.LM369:
 3906 119e 1382      		std Z+3,__zero_reg__
 3907 11a0 1282      		std Z+2,__zero_reg__
 3908               	.LM370:
 3909 11a2 1582      		std Z+5,__zero_reg__
 3910 11a4 1482      		std Z+4,__zero_reg__
 3911               	.LBE162:
 3912               	.LBE161:
 3913               	.LM371:
 3914 11a6 CB01      		movw r24,r22
 3915 11a8 BA01      		movw r22,r20
 3916 11aa 7E01      		movw r14,r28
 3917 11ac 0894      		sec
 3918 11ae E11C      		adc r14,__zero_reg__
 3919 11b0 F11C      		adc r15,__zero_reg__
 3920 11b2 A701      		movw r20,r14
 3921               	.LVL458:
 3922 11b4 30E0      		ldi r19,lo8(0)
 3923 11b6 0E94 0000 		call ultoa
 3924               	.LVL459:
 3925               	.LM372:
 3926 11ba C801      		movw r24,r16
 3927 11bc B701      		movw r22,r14
 3928 11be 0E94 0000 		call _ZN6StringaSEPKc
 3929               	/* epilogue start */
 3930               	.LBE160:
 3931               	.LBE159:
 3932               	.LM373:
 3933 11c2 A196      		adiw r28,33
 3934 11c4 0FB6      		in __tmp_reg__,__SREG__
 3935 11c6 F894      		cli
 3936 11c8 DEBF      		out __SP_H__,r29
 3937 11ca 0FBE      		out __SREG__,__tmp_reg__
 3938 11cc CDBF      		out __SP_L__,r28
 3939 11ce CF91      		pop r28
 3940 11d0 DF91      		pop r29
 3941 11d2 1F91      		pop r17
 3942 11d4 0F91      		pop r16
 3943               	.LVL460:
 3944 11d6 FF90      		pop r15
 3945 11d8 EF90      		pop r14
 3946 11da 0895      		ret
 3947               	.LFE83:
 3949               	.global	_ZN6StringC2Emh
 3951               	_ZN6StringC2Emh:
 3952               	.LFB82:
 3953               	.LM374:
 3954               	.LVL461:
 3955 11dc EF92      		push r14
 3956 11de FF92      		push r15
 3957 11e0 0F93      		push r16
 3958 11e2 1F93      		push r17
 3959 11e4 DF93      		push r29
 3960 11e6 CF93      		push r28
 3961 11e8 CDB7      		in r28,__SP_L__
 3962 11ea DEB7      		in r29,__SP_H__
 3963 11ec A197      		sbiw r28,33
 3964 11ee 0FB6      		in __tmp_reg__,__SREG__
 3965 11f0 F894      		cli
 3966 11f2 DEBF      		out __SP_H__,r29
 3967 11f4 0FBE      		out __SREG__,__tmp_reg__
 3968 11f6 CDBF      		out __SP_L__,r28
 3969               	/* prologue: function */
 3970               	/* frame size = 33 */
 3971 11f8 8C01      		movw r16,r24
 3972               	.LBB163:
 3973               	.LBB164:
 3974               	.LBB165:
 3975               	.LBB166:
 3976               	.LM375:
 3977 11fa FC01      		movw r30,r24
 3978 11fc 1182      		std Z+1,__zero_reg__
 3979 11fe 1082      		st Z,__zero_reg__
 3980               	.LM376:
 3981 1200 1382      		std Z+3,__zero_reg__
 3982 1202 1282      		std Z+2,__zero_reg__
 3983               	.LM377:
 3984 1204 1582      		std Z+5,__zero_reg__
 3985 1206 1482      		std Z+4,__zero_reg__
 3986               	.LBE166:
 3987               	.LBE165:
 3988               	.LM378:
 3989 1208 CB01      		movw r24,r22
 3990 120a BA01      		movw r22,r20
 3991 120c 7E01      		movw r14,r28
 3992 120e 0894      		sec
 3993 1210 E11C      		adc r14,__zero_reg__
 3994 1212 F11C      		adc r15,__zero_reg__
 3995 1214 A701      		movw r20,r14
 3996               	.LVL462:
 3997 1216 30E0      		ldi r19,lo8(0)
 3998 1218 0E94 0000 		call ultoa
 3999               	.LVL463:
 4000               	.LM379:
 4001 121c C801      		movw r24,r16
 4002 121e B701      		movw r22,r14
 4003 1220 0E94 0000 		call _ZN6StringaSEPKc
 4004               	/* epilogue start */
 4005               	.LBE164:
 4006               	.LBE163:
 4007               	.LM380:
 4008 1224 A196      		adiw r28,33
 4009 1226 0FB6      		in __tmp_reg__,__SREG__
 4010 1228 F894      		cli
 4011 122a DEBF      		out __SP_H__,r29
 4012 122c 0FBE      		out __SREG__,__tmp_reg__
 4013 122e CDBF      		out __SP_L__,r28
 4014 1230 CF91      		pop r28
 4015 1232 DF91      		pop r29
 4016 1234 1F91      		pop r17
 4017 1236 0F91      		pop r16
 4018               	.LVL464:
 4019 1238 FF90      		pop r15
 4020 123a EF90      		pop r14
 4021 123c 0895      		ret
 4022               	.LFE82:
 4024               	.global	_ZN6StringC1Elh
 4026               	_ZN6StringC1Elh:
 4027               	.LFB80:
 4028               	.LM381:
 4029               	.LVL465:
 4030 123e EF92      		push r14
 4031 1240 FF92      		push r15
 4032 1242 0F93      		push r16
 4033 1244 1F93      		push r17
 4034 1246 DF93      		push r29
 4035 1248 CF93      		push r28
 4036 124a CDB7      		in r28,__SP_L__
 4037 124c DEB7      		in r29,__SP_H__
 4038 124e A297      		sbiw r28,34
 4039 1250 0FB6      		in __tmp_reg__,__SREG__
 4040 1252 F894      		cli
 4041 1254 DEBF      		out __SP_H__,r29
 4042 1256 0FBE      		out __SREG__,__tmp_reg__
 4043 1258 CDBF      		out __SP_L__,r28
 4044               	/* prologue: function */
 4045               	/* frame size = 34 */
 4046 125a 8C01      		movw r16,r24
 4047               	.LBB167:
 4048               	.LBB168:
 4049               	.LBB169:
 4050               	.LBB170:
 4051               	.LM382:
 4052 125c FC01      		movw r30,r24
 4053 125e 1182      		std Z+1,__zero_reg__
 4054 1260 1082      		st Z,__zero_reg__
 4055               	.LM383:
 4056 1262 1382      		std Z+3,__zero_reg__
 4057 1264 1282      		std Z+2,__zero_reg__
 4058               	.LM384:
 4059 1266 1582      		std Z+5,__zero_reg__
 4060 1268 1482      		std Z+4,__zero_reg__
 4061               	.LBE170:
 4062               	.LBE169:
 4063               	.LM385:
 4064 126a CB01      		movw r24,r22
 4065 126c BA01      		movw r22,r20
 4066 126e 7E01      		movw r14,r28
 4067 1270 0894      		sec
 4068 1272 E11C      		adc r14,__zero_reg__
 4069 1274 F11C      		adc r15,__zero_reg__
 4070 1276 A701      		movw r20,r14
 4071               	.LVL466:
 4072 1278 30E0      		ldi r19,lo8(0)
 4073 127a 0E94 0000 		call ltoa
 4074               	.LVL467:
 4075               	.LM386:
 4076 127e C801      		movw r24,r16
 4077 1280 B701      		movw r22,r14
 4078 1282 0E94 0000 		call _ZN6StringaSEPKc
 4079               	/* epilogue start */
 4080               	.LBE168:
 4081               	.LBE167:
 4082               	.LM387:
 4083 1286 A296      		adiw r28,34
 4084 1288 0FB6      		in __tmp_reg__,__SREG__
 4085 128a F894      		cli
 4086 128c DEBF      		out __SP_H__,r29
 4087 128e 0FBE      		out __SREG__,__tmp_reg__
 4088 1290 CDBF      		out __SP_L__,r28
 4089 1292 CF91      		pop r28
 4090 1294 DF91      		pop r29
 4091 1296 1F91      		pop r17
 4092 1298 0F91      		pop r16
 4093               	.LVL468:
 4094 129a FF90      		pop r15
 4095 129c EF90      		pop r14
 4096 129e 0895      		ret
 4097               	.LFE80:
 4099               	.global	_ZN6StringC2Elh
 4101               	_ZN6StringC2Elh:
 4102               	.LFB79:
 4103               	.LM388:
 4104               	.LVL469:
 4105 12a0 EF92      		push r14
 4106 12a2 FF92      		push r15
 4107 12a4 0F93      		push r16
 4108 12a6 1F93      		push r17
 4109 12a8 DF93      		push r29
 4110 12aa CF93      		push r28
 4111 12ac CDB7      		in r28,__SP_L__
 4112 12ae DEB7      		in r29,__SP_H__
 4113 12b0 A297      		sbiw r28,34
 4114 12b2 0FB6      		in __tmp_reg__,__SREG__
 4115 12b4 F894      		cli
 4116 12b6 DEBF      		out __SP_H__,r29
 4117 12b8 0FBE      		out __SREG__,__tmp_reg__
 4118 12ba CDBF      		out __SP_L__,r28
 4119               	/* prologue: function */
 4120               	/* frame size = 34 */
 4121 12bc 8C01      		movw r16,r24
 4122               	.LBB171:
 4123               	.LBB172:
 4124               	.LBB173:
 4125               	.LBB174:
 4126               	.LM389:
 4127 12be FC01      		movw r30,r24
 4128 12c0 1182      		std Z+1,__zero_reg__
 4129 12c2 1082      		st Z,__zero_reg__
 4130               	.LM390:
 4131 12c4 1382      		std Z+3,__zero_reg__
 4132 12c6 1282      		std Z+2,__zero_reg__
 4133               	.LM391:
 4134 12c8 1582      		std Z+5,__zero_reg__
 4135 12ca 1482      		std Z+4,__zero_reg__
 4136               	.LBE174:
 4137               	.LBE173:
 4138               	.LM392:
 4139 12cc CB01      		movw r24,r22
 4140 12ce BA01      		movw r22,r20
 4141 12d0 7E01      		movw r14,r28
 4142 12d2 0894      		sec
 4143 12d4 E11C      		adc r14,__zero_reg__
 4144 12d6 F11C      		adc r15,__zero_reg__
 4145 12d8 A701      		movw r20,r14
 4146               	.LVL470:
 4147 12da 30E0      		ldi r19,lo8(0)
 4148 12dc 0E94 0000 		call ltoa
 4149               	.LVL471:
 4150               	.LM393:
 4151 12e0 C801      		movw r24,r16
 4152 12e2 B701      		movw r22,r14
 4153 12e4 0E94 0000 		call _ZN6StringaSEPKc
 4154               	/* epilogue start */
 4155               	.LBE172:
 4156               	.LBE171:
 4157               	.LM394:
 4158 12e8 A296      		adiw r28,34
 4159 12ea 0FB6      		in __tmp_reg__,__SREG__
 4160 12ec F894      		cli
 4161 12ee DEBF      		out __SP_H__,r29
 4162 12f0 0FBE      		out __SREG__,__tmp_reg__
 4163 12f2 CDBF      		out __SP_L__,r28
 4164 12f4 CF91      		pop r28
 4165 12f6 DF91      		pop r29
 4166 12f8 1F91      		pop r17
 4167 12fa 0F91      		pop r16
 4168               	.LVL472:
 4169 12fc FF90      		pop r15
 4170 12fe EF90      		pop r14
 4171 1300 0895      		ret
 4172               	.LFE79:
 4174               	.global	_ZN6StringC1Ejh
 4176               	_ZN6StringC1Ejh:
 4177               	.LFB77:
 4178               	.LM395:
 4179               	.LVL473:
 4180 1302 EF92      		push r14
 4181 1304 FF92      		push r15
 4182 1306 0F93      		push r16
 4183 1308 1F93      		push r17
 4184 130a DF93      		push r29
 4185 130c CF93      		push r28
 4186 130e CDB7      		in r28,__SP_L__
 4187 1310 DEB7      		in r29,__SP_H__
 4188 1312 6197      		sbiw r28,17
 4189 1314 0FB6      		in __tmp_reg__,__SREG__
 4190 1316 F894      		cli
 4191 1318 DEBF      		out __SP_H__,r29
 4192 131a 0FBE      		out __SREG__,__tmp_reg__
 4193 131c CDBF      		out __SP_L__,r28
 4194               	/* prologue: function */
 4195               	/* frame size = 17 */
 4196 131e 8C01      		movw r16,r24
 4197 1320 CB01      		movw r24,r22
 4198               	.LVL474:
 4199               	.LBB175:
 4200               	.LBB176:
 4201               	.LBB177:
 4202               	.LBB178:
 4203               	.LM396:
 4204 1322 F801      		movw r30,r16
 4205 1324 1182      		std Z+1,__zero_reg__
 4206 1326 1082      		st Z,__zero_reg__
 4207               	.LM397:
 4208 1328 1382      		std Z+3,__zero_reg__
 4209 132a 1282      		std Z+2,__zero_reg__
 4210               	.LM398:
 4211 132c 1582      		std Z+5,__zero_reg__
 4212 132e 1482      		std Z+4,__zero_reg__
 4213               	.LBE178:
 4214               	.LBE177:
 4215               	.LM399:
 4216 1330 7E01      		movw r14,r28
 4217 1332 0894      		sec
 4218 1334 E11C      		adc r14,__zero_reg__
 4219 1336 F11C      		adc r15,__zero_reg__
 4220 1338 B701      		movw r22,r14
 4221               	.LVL475:
 4222 133a 50E0      		ldi r21,lo8(0)
 4223 133c 0E94 0000 		call utoa
 4224               	.LVL476:
 4225               	.LM400:
 4226 1340 C801      		movw r24,r16
 4227 1342 B701      		movw r22,r14
 4228 1344 0E94 0000 		call _ZN6StringaSEPKc
 4229               	/* epilogue start */
 4230               	.LBE176:
 4231               	.LBE175:
 4232               	.LM401:
 4233 1348 6196      		adiw r28,17
 4234 134a 0FB6      		in __tmp_reg__,__SREG__
 4235 134c F894      		cli
 4236 134e DEBF      		out __SP_H__,r29
 4237 1350 0FBE      		out __SREG__,__tmp_reg__
 4238 1352 CDBF      		out __SP_L__,r28
 4239 1354 CF91      		pop r28
 4240 1356 DF91      		pop r29
 4241 1358 1F91      		pop r17
 4242 135a 0F91      		pop r16
 4243               	.LVL477:
 4244 135c FF90      		pop r15
 4245 135e EF90      		pop r14
 4246 1360 0895      		ret
 4247               	.LFE77:
 4249               	.global	_ZN6StringC2Ejh
 4251               	_ZN6StringC2Ejh:
 4252               	.LFB76:
 4253               	.LM402:
 4254               	.LVL478:
 4255 1362 EF92      		push r14
 4256 1364 FF92      		push r15
 4257 1366 0F93      		push r16
 4258 1368 1F93      		push r17
 4259 136a DF93      		push r29
 4260 136c CF93      		push r28
 4261 136e CDB7      		in r28,__SP_L__
 4262 1370 DEB7      		in r29,__SP_H__
 4263 1372 6197      		sbiw r28,17
 4264 1374 0FB6      		in __tmp_reg__,__SREG__
 4265 1376 F894      		cli
 4266 1378 DEBF      		out __SP_H__,r29
 4267 137a 0FBE      		out __SREG__,__tmp_reg__
 4268 137c CDBF      		out __SP_L__,r28
 4269               	/* prologue: function */
 4270               	/* frame size = 17 */
 4271 137e 8C01      		movw r16,r24
 4272 1380 CB01      		movw r24,r22
 4273               	.LVL479:
 4274               	.LBB179:
 4275               	.LBB180:
 4276               	.LBB181:
 4277               	.LBB182:
 4278               	.LM403:
 4279 1382 F801      		movw r30,r16
 4280 1384 1182      		std Z+1,__zero_reg__
 4281 1386 1082      		st Z,__zero_reg__
 4282               	.LM404:
 4283 1388 1382      		std Z+3,__zero_reg__
 4284 138a 1282      		std Z+2,__zero_reg__
 4285               	.LM405:
 4286 138c 1582      		std Z+5,__zero_reg__
 4287 138e 1482      		std Z+4,__zero_reg__
 4288               	.LBE182:
 4289               	.LBE181:
 4290               	.LM406:
 4291 1390 7E01      		movw r14,r28
 4292 1392 0894      		sec
 4293 1394 E11C      		adc r14,__zero_reg__
 4294 1396 F11C      		adc r15,__zero_reg__
 4295 1398 B701      		movw r22,r14
 4296               	.LVL480:
 4297 139a 50E0      		ldi r21,lo8(0)
 4298 139c 0E94 0000 		call utoa
 4299               	.LVL481:
 4300               	.LM407:
 4301 13a0 C801      		movw r24,r16
 4302 13a2 B701      		movw r22,r14
 4303 13a4 0E94 0000 		call _ZN6StringaSEPKc
 4304               	/* epilogue start */
 4305               	.LBE180:
 4306               	.LBE179:
 4307               	.LM408:
 4308 13a8 6196      		adiw r28,17
 4309 13aa 0FB6      		in __tmp_reg__,__SREG__
 4310 13ac F894      		cli
 4311 13ae DEBF      		out __SP_H__,r29
 4312 13b0 0FBE      		out __SREG__,__tmp_reg__
 4313 13b2 CDBF      		out __SP_L__,r28
 4314 13b4 CF91      		pop r28
 4315 13b6 DF91      		pop r29
 4316 13b8 1F91      		pop r17
 4317 13ba 0F91      		pop r16
 4318               	.LVL482:
 4319 13bc FF90      		pop r15
 4320 13be EF90      		pop r14
 4321 13c0 0895      		ret
 4322               	.LFE76:
 4324               	.global	_ZN6StringC1Eih
 4326               	_ZN6StringC1Eih:
 4327               	.LFB74:
 4328               	.LM409:
 4329               	.LVL483:
 4330 13c2 EF92      		push r14
 4331 13c4 FF92      		push r15
 4332 13c6 0F93      		push r16
 4333 13c8 1F93      		push r17
 4334 13ca DF93      		push r29
 4335 13cc CF93      		push r28
 4336 13ce CDB7      		in r28,__SP_L__
 4337 13d0 DEB7      		in r29,__SP_H__
 4338 13d2 6297      		sbiw r28,18
 4339 13d4 0FB6      		in __tmp_reg__,__SREG__
 4340 13d6 F894      		cli
 4341 13d8 DEBF      		out __SP_H__,r29
 4342 13da 0FBE      		out __SREG__,__tmp_reg__
 4343 13dc CDBF      		out __SP_L__,r28
 4344               	/* prologue: function */
 4345               	/* frame size = 18 */
 4346 13de 8C01      		movw r16,r24
 4347 13e0 CB01      		movw r24,r22
 4348               	.LVL484:
 4349               	.LBB183:
 4350               	.LBB184:
 4351               	.LBB185:
 4352               	.LBB186:
 4353               	.LM410:
 4354 13e2 F801      		movw r30,r16
 4355 13e4 1182      		std Z+1,__zero_reg__
 4356 13e6 1082      		st Z,__zero_reg__
 4357               	.LM411:
 4358 13e8 1382      		std Z+3,__zero_reg__
 4359 13ea 1282      		std Z+2,__zero_reg__
 4360               	.LM412:
 4361 13ec 1582      		std Z+5,__zero_reg__
 4362 13ee 1482      		std Z+4,__zero_reg__
 4363               	.LBE186:
 4364               	.LBE185:
 4365               	.LM413:
 4366 13f0 7E01      		movw r14,r28
 4367 13f2 0894      		sec
 4368 13f4 E11C      		adc r14,__zero_reg__
 4369 13f6 F11C      		adc r15,__zero_reg__
 4370 13f8 B701      		movw r22,r14
 4371               	.LVL485:
 4372 13fa 50E0      		ldi r21,lo8(0)
 4373 13fc 0E94 0000 		call itoa
 4374               	.LVL486:
 4375               	.LM414:
 4376 1400 C801      		movw r24,r16
 4377 1402 B701      		movw r22,r14
 4378 1404 0E94 0000 		call _ZN6StringaSEPKc
 4379               	/* epilogue start */
 4380               	.LBE184:
 4381               	.LBE183:
 4382               	.LM415:
 4383 1408 6296      		adiw r28,18
 4384 140a 0FB6      		in __tmp_reg__,__SREG__
 4385 140c F894      		cli
 4386 140e DEBF      		out __SP_H__,r29
 4387 1410 0FBE      		out __SREG__,__tmp_reg__
 4388 1412 CDBF      		out __SP_L__,r28
 4389 1414 CF91      		pop r28
 4390 1416 DF91      		pop r29
 4391 1418 1F91      		pop r17
 4392 141a 0F91      		pop r16
 4393               	.LVL487:
 4394 141c FF90      		pop r15
 4395 141e EF90      		pop r14
 4396 1420 0895      		ret
 4397               	.LFE74:
 4399               	.global	_ZN6StringC2Eih
 4401               	_ZN6StringC2Eih:
 4402               	.LFB73:
 4403               	.LM416:
 4404               	.LVL488:
 4405 1422 EF92      		push r14
 4406 1424 FF92      		push r15
 4407 1426 0F93      		push r16
 4408 1428 1F93      		push r17
 4409 142a DF93      		push r29
 4410 142c CF93      		push r28
 4411 142e CDB7      		in r28,__SP_L__
 4412 1430 DEB7      		in r29,__SP_H__
 4413 1432 6297      		sbiw r28,18
 4414 1434 0FB6      		in __tmp_reg__,__SREG__
 4415 1436 F894      		cli
 4416 1438 DEBF      		out __SP_H__,r29
 4417 143a 0FBE      		out __SREG__,__tmp_reg__
 4418 143c CDBF      		out __SP_L__,r28
 4419               	/* prologue: function */
 4420               	/* frame size = 18 */
 4421 143e 8C01      		movw r16,r24
 4422 1440 CB01      		movw r24,r22
 4423               	.LVL489:
 4424               	.LBB187:
 4425               	.LBB188:
 4426               	.LBB189:
 4427               	.LBB190:
 4428               	.LM417:
 4429 1442 F801      		movw r30,r16
 4430 1444 1182      		std Z+1,__zero_reg__
 4431 1446 1082      		st Z,__zero_reg__
 4432               	.LM418:
 4433 1448 1382      		std Z+3,__zero_reg__
 4434 144a 1282      		std Z+2,__zero_reg__
 4435               	.LM419:
 4436 144c 1582      		std Z+5,__zero_reg__
 4437 144e 1482      		std Z+4,__zero_reg__
 4438               	.LBE190:
 4439               	.LBE189:
 4440               	.LM420:
 4441 1450 7E01      		movw r14,r28
 4442 1452 0894      		sec
 4443 1454 E11C      		adc r14,__zero_reg__
 4444 1456 F11C      		adc r15,__zero_reg__
 4445 1458 B701      		movw r22,r14
 4446               	.LVL490:
 4447 145a 50E0      		ldi r21,lo8(0)
 4448 145c 0E94 0000 		call itoa
 4449               	.LVL491:
 4450               	.LM421:
 4451 1460 C801      		movw r24,r16
 4452 1462 B701      		movw r22,r14
 4453 1464 0E94 0000 		call _ZN6StringaSEPKc
 4454               	/* epilogue start */
 4455               	.LBE188:
 4456               	.LBE187:
 4457               	.LM422:
 4458 1468 6296      		adiw r28,18
 4459 146a 0FB6      		in __tmp_reg__,__SREG__
 4460 146c F894      		cli
 4461 146e DEBF      		out __SP_H__,r29
 4462 1470 0FBE      		out __SREG__,__tmp_reg__
 4463 1472 CDBF      		out __SP_L__,r28
 4464 1474 CF91      		pop r28
 4465 1476 DF91      		pop r29
 4466 1478 1F91      		pop r17
 4467 147a 0F91      		pop r16
 4468               	.LVL492:
 4469 147c FF90      		pop r15
 4470 147e EF90      		pop r14
 4471 1480 0895      		ret
 4472               	.LFE73:
 4474               	.global	_ZN6StringC1Ehh
 4476               	_ZN6StringC1Ehh:
 4477               	.LFB71:
 4478               	.LM423:
 4479               	.LVL493:
 4480 1482 EF92      		push r14
 4481 1484 FF92      		push r15
 4482 1486 0F93      		push r16
 4483 1488 1F93      		push r17
 4484 148a DF93      		push r29
 4485 148c CF93      		push r28
 4486 148e CDB7      		in r28,__SP_L__
 4487 1490 DEB7      		in r29,__SP_H__
 4488 1492 2997      		sbiw r28,9
 4489 1494 0FB6      		in __tmp_reg__,__SREG__
 4490 1496 F894      		cli
 4491 1498 DEBF      		out __SP_H__,r29
 4492 149a 0FBE      		out __SREG__,__tmp_reg__
 4493 149c CDBF      		out __SP_L__,r28
 4494               	/* prologue: function */
 4495               	/* frame size = 9 */
 4496 149e 8C01      		movw r16,r24
 4497 14a0 862F      		mov r24,r22
 4498               	.LVL494:
 4499               	.LBB191:
 4500               	.LBB192:
 4501               	.LBB193:
 4502               	.LBB194:
 4503               	.LM424:
 4504 14a2 F801      		movw r30,r16
 4505 14a4 1182      		std Z+1,__zero_reg__
 4506 14a6 1082      		st Z,__zero_reg__
 4507               	.LM425:
 4508 14a8 1382      		std Z+3,__zero_reg__
 4509 14aa 1282      		std Z+2,__zero_reg__
 4510               	.LM426:
 4511 14ac 1582      		std Z+5,__zero_reg__
 4512 14ae 1482      		std Z+4,__zero_reg__
 4513               	.LBE194:
 4514               	.LBE193:
 4515               	.LM427:
 4516 14b0 90E0      		ldi r25,lo8(0)
 4517 14b2 7E01      		movw r14,r28
 4518 14b4 0894      		sec
 4519 14b6 E11C      		adc r14,__zero_reg__
 4520 14b8 F11C      		adc r15,__zero_reg__
 4521 14ba B701      		movw r22,r14
 4522               	.LVL495:
 4523 14bc 50E0      		ldi r21,lo8(0)
 4524 14be 0E94 0000 		call utoa
 4525               	.LVL496:
 4526               	.LM428:
 4527 14c2 C801      		movw r24,r16
 4528 14c4 B701      		movw r22,r14
 4529 14c6 0E94 0000 		call _ZN6StringaSEPKc
 4530               	/* epilogue start */
 4531               	.LBE192:
 4532               	.LBE191:
 4533               	.LM429:
 4534 14ca 2996      		adiw r28,9
 4535 14cc 0FB6      		in __tmp_reg__,__SREG__
 4536 14ce F894      		cli
 4537 14d0 DEBF      		out __SP_H__,r29
 4538 14d2 0FBE      		out __SREG__,__tmp_reg__
 4539 14d4 CDBF      		out __SP_L__,r28
 4540 14d6 CF91      		pop r28
 4541 14d8 DF91      		pop r29
 4542 14da 1F91      		pop r17
 4543 14dc 0F91      		pop r16
 4544               	.LVL497:
 4545 14de FF90      		pop r15
 4546 14e0 EF90      		pop r14
 4547 14e2 0895      		ret
 4548               	.LFE71:
 4550               	.global	_ZN6StringC2Ehh
 4552               	_ZN6StringC2Ehh:
 4553               	.LFB70:
 4554               	.LM430:
 4555               	.LVL498:
 4556 14e4 EF92      		push r14
 4557 14e6 FF92      		push r15
 4558 14e8 0F93      		push r16
 4559 14ea 1F93      		push r17
 4560 14ec DF93      		push r29
 4561 14ee CF93      		push r28
 4562 14f0 CDB7      		in r28,__SP_L__
 4563 14f2 DEB7      		in r29,__SP_H__
 4564 14f4 2997      		sbiw r28,9
 4565 14f6 0FB6      		in __tmp_reg__,__SREG__
 4566 14f8 F894      		cli
 4567 14fa DEBF      		out __SP_H__,r29
 4568 14fc 0FBE      		out __SREG__,__tmp_reg__
 4569 14fe CDBF      		out __SP_L__,r28
 4570               	/* prologue: function */
 4571               	/* frame size = 9 */
 4572 1500 8C01      		movw r16,r24
 4573 1502 862F      		mov r24,r22
 4574               	.LVL499:
 4575               	.LBB195:
 4576               	.LBB196:
 4577               	.LBB197:
 4578               	.LBB198:
 4579               	.LM431:
 4580 1504 F801      		movw r30,r16
 4581 1506 1182      		std Z+1,__zero_reg__
 4582 1508 1082      		st Z,__zero_reg__
 4583               	.LM432:
 4584 150a 1382      		std Z+3,__zero_reg__
 4585 150c 1282      		std Z+2,__zero_reg__
 4586               	.LM433:
 4587 150e 1582      		std Z+5,__zero_reg__
 4588 1510 1482      		std Z+4,__zero_reg__
 4589               	.LBE198:
 4590               	.LBE197:
 4591               	.LM434:
 4592 1512 90E0      		ldi r25,lo8(0)
 4593 1514 7E01      		movw r14,r28
 4594 1516 0894      		sec
 4595 1518 E11C      		adc r14,__zero_reg__
 4596 151a F11C      		adc r15,__zero_reg__
 4597 151c B701      		movw r22,r14
 4598               	.LVL500:
 4599 151e 50E0      		ldi r21,lo8(0)
 4600 1520 0E94 0000 		call utoa
 4601               	.LVL501:
 4602               	.LM435:
 4603 1524 C801      		movw r24,r16
 4604 1526 B701      		movw r22,r14
 4605 1528 0E94 0000 		call _ZN6StringaSEPKc
 4606               	/* epilogue start */
 4607               	.LBE196:
 4608               	.LBE195:
 4609               	.LM436:
 4610 152c 2996      		adiw r28,9
 4611 152e 0FB6      		in __tmp_reg__,__SREG__
 4612 1530 F894      		cli
 4613 1532 DEBF      		out __SP_H__,r29
 4614 1534 0FBE      		out __SREG__,__tmp_reg__
 4615 1536 CDBF      		out __SP_L__,r28
 4616 1538 CF91      		pop r28
 4617 153a DF91      		pop r29
 4618 153c 1F91      		pop r17
 4619 153e 0F91      		pop r16
 4620               	.LVL502:
 4621 1540 FF90      		pop r15
 4622 1542 EF90      		pop r14
 4623 1544 0895      		ret
 4624               	.LFE70:
 4626               	.global	_ZN6StringC1Ec
 4628               	_ZN6StringC1Ec:
 4629               	.LFB68:
 4630               	.LM437:
 4631               	.LVL503:
 4632 1546 DF93      		push r29
 4633 1548 CF93      		push r28
 4634 154a 00D0      		rcall .
 4635 154c CDB7      		in r28,__SP_L__
 4636 154e DEB7      		in r29,__SP_H__
 4637               	/* prologue: function */
 4638               	/* frame size = 2 */
 4639 1550 FC01      		movw r30,r24
 4640               	.LBB199:
 4641               	.LBB200:
 4642               	.LBB201:
 4643               	.LBB202:
 4644               	.LM438:
 4645 1552 1182      		std Z+1,__zero_reg__
 4646 1554 1082      		st Z,__zero_reg__
 4647               	.LM439:
 4648 1556 1382      		std Z+3,__zero_reg__
 4649 1558 1282      		std Z+2,__zero_reg__
 4650               	.LM440:
 4651 155a 1582      		std Z+5,__zero_reg__
 4652 155c 1482      		std Z+4,__zero_reg__
 4653               	.LBE202:
 4654               	.LBE201:
 4655               	.LM441:
 4656 155e 6983      		std Y+1,r22
 4657               	.LM442:
 4658 1560 1A82      		std Y+2,__zero_reg__
 4659               	.LM443:
 4660 1562 BE01      		movw r22,r28
 4661               	.LVL504:
 4662 1564 6F5F      		subi r22,lo8(-(1))
 4663 1566 7F4F      		sbci r23,hi8(-(1))
 4664 1568 0E94 0000 		call _ZN6StringaSEPKc
 4665               	.LVL505:
 4666               	/* epilogue start */
 4667               	.LBE200:
 4668               	.LBE199:
 4669               	.LM444:
 4670 156c 0F90      		pop __tmp_reg__
 4671 156e 0F90      		pop __tmp_reg__
 4672 1570 CF91      		pop r28
 4673 1572 DF91      		pop r29
 4674 1574 0895      		ret
 4675               	.LFE68:
 4677               	.global	_ZN6StringC2Ec
 4679               	_ZN6StringC2Ec:
 4680               	.LFB67:
 4681               	.LM445:
 4682               	.LVL506:
 4683 1576 DF93      		push r29
 4684 1578 CF93      		push r28
 4685 157a 00D0      		rcall .
 4686 157c CDB7      		in r28,__SP_L__
 4687 157e DEB7      		in r29,__SP_H__
 4688               	/* prologue: function */
 4689               	/* frame size = 2 */
 4690 1580 FC01      		movw r30,r24
 4691               	.LBB203:
 4692               	.LBB204:
 4693               	.LBB205:
 4694               	.LBB206:
 4695               	.LM446:
 4696 1582 1182      		std Z+1,__zero_reg__
 4697 1584 1082      		st Z,__zero_reg__
 4698               	.LM447:
 4699 1586 1382      		std Z+3,__zero_reg__
 4700 1588 1282      		std Z+2,__zero_reg__
 4701               	.LM448:
 4702 158a 1582      		std Z+5,__zero_reg__
 4703 158c 1482      		std Z+4,__zero_reg__
 4704               	.LBE206:
 4705               	.LBE205:
 4706               	.LM449:
 4707 158e 6983      		std Y+1,r22
 4708               	.LM450:
 4709 1590 1A82      		std Y+2,__zero_reg__
 4710               	.LM451:
 4711 1592 BE01      		movw r22,r28
 4712               	.LVL507:
 4713 1594 6F5F      		subi r22,lo8(-(1))
 4714 1596 7F4F      		sbci r23,hi8(-(1))
 4715 1598 0E94 0000 		call _ZN6StringaSEPKc
 4716               	.LVL508:
 4717               	/* epilogue start */
 4718               	.LBE204:
 4719               	.LBE203:
 4720               	.LM452:
 4721 159c 0F90      		pop __tmp_reg__
 4722 159e 0F90      		pop __tmp_reg__
 4723 15a0 CF91      		pop r28
 4724 15a2 DF91      		pop r29
 4725 15a4 0895      		ret
 4726               	.LFE67:
 4728               		.data
 4729               	.LC0:
 4730 0000 00        		.string	""
 4731               		.text
 4732               	.global	_ZNK6String9substringEjj
 4734               	_ZNK6String9substringEjj:
 4735               	.LFB149:
 4736               	.LM453:
 4737               	.LVL509:
 4738 15a6 BF92      		push r11
 4739 15a8 CF92      		push r12
 4740 15aa DF92      		push r13
 4741 15ac EF92      		push r14
 4742 15ae FF92      		push r15
 4743 15b0 0F93      		push r16
 4744 15b2 1F93      		push r17
 4745 15b4 CF93      		push r28
 4746 15b6 DF93      		push r29
 4747               	/* prologue: function */
 4748               	/* frame size = 0 */
 4749 15b8 082F      		mov r16,r24
 4750 15ba B92E      		mov r11,r25
 4751 15bc 6B01      		movw r12,r22
 4752 15be 7A01      		movw r14,r20
 4753 15c0 E901      		movw r28,r18
 4754               	.LBB207:
 4755               	.LM454:
 4756 15c2 2417      		cp r18,r20
 4757 15c4 3507      		cpc r19,r21
 4758 15c6 00F4      		brsh .L320
 4759               	.LVL510:
 4760 15c8 EA01      		movw r28,r20
 4761               	.LVL511:
 4762 15ca 7901      		movw r14,r18
 4763               	.LVL512:
 4764               	.L320:
 4765               	.LM455:
 4766 15cc 802F      		mov r24,r16
 4767 15ce 9B2D      		mov r25,r11
 4768 15d0 60E0      		ldi r22,lo8(.LC0)
 4769 15d2 70E0      		ldi r23,hi8(.LC0)
 4770 15d4 0E94 0000 		call _ZN6StringC1EPKc
 4771               	.LM456:
 4772 15d8 D601      		movw r26,r12
 4773 15da 1496      		adiw r26,4
 4774 15dc 8D91      		ld r24,X+
 4775 15de 9C91      		ld r25,X
 4776 15e0 1597      		sbiw r26,4+1
 4777 15e2 E816      		cp r14,r24
 4778 15e4 F906      		cpc r15,r25
 4779 15e6 00F4      		brsh .L319
 4780 15e8 8C17      		cp r24,r28
 4781 15ea 9D07      		cpc r25,r29
 4782 15ec 00F4      		brsh .L322
 4783 15ee EC01      		movw r28,r24
 4784               	.LVL513:
 4785               	.L322:
 4786               	.LM457:
 4787 15f0 D601      		movw r26,r12
 4788 15f2 ED91      		ld r30,X+
 4789 15f4 FC91      		ld r31,X
 4790 15f6 1197      		sbiw r26,1
 4791 15f8 EC0F      		add r30,r28
 4792 15fa FD1F      		adc r31,r29
 4793 15fc 1081      		ld r17,Z
 4794               	.LVL514:
 4795               	.LM458:
 4796 15fe 1082      		st Z,__zero_reg__
 4797               	.LM459:
 4798 1600 6D91      		ld r22,X+
 4799 1602 7C91      		ld r23,X
 4800 1604 6E0D      		add r22,r14
 4801 1606 7F1D      		adc r23,r15
 4802 1608 802F      		mov r24,r16
 4803 160a 9B2D      		mov r25,r11
 4804 160c 0E94 0000 		call _ZN6StringaSEPKc
 4805               	.LM460:
 4806 1610 D601      		movw r26,r12
 4807 1612 ED91      		ld r30,X+
 4808 1614 FC91      		ld r31,X
 4809 1616 EC0F      		add r30,r28
 4810 1618 FD1F      		adc r31,r29
 4811 161a 1083      		st Z,r17
 4812               	.L319:
 4813               	.LBE207:
 4814               	.LM461:
 4815 161c 802F      		mov r24,r16
 4816 161e 9B2D      		mov r25,r11
 4817               	/* epilogue start */
 4818 1620 DF91      		pop r29
 4819 1622 CF91      		pop r28
 4820               	.LVL515:
 4821 1624 1F91      		pop r17
 4822               	.LVL516:
 4823 1626 0F91      		pop r16
 4824 1628 FF90      		pop r15
 4825 162a EF90      		pop r14
 4826               	.LVL517:
 4827 162c DF90      		pop r13
 4828 162e CF90      		pop r12
 4829               	.LVL518:
 4830 1630 BF90      		pop r11
 4831 1632 0895      		ret
 4832               	.LFE149:
 4834               	.global	_ZN6StringaSERKS_
 4836               	_ZN6StringaSERKS_:
 4837               	.LFB99:
 4838               	.LM462:
 4839               	.LVL519:
 4840 1634 CF93      		push r28
 4841 1636 DF93      		push r29
 4842               	/* prologue: function */
 4843               	/* frame size = 0 */
 4844 1638 EC01      		movw r28,r24
 4845 163a FB01      		movw r30,r22
 4846               	.LM463:
 4847 163c 8617      		cp r24,r22
 4848 163e 9707      		cpc r25,r23
 4849 1640 01F0      		breq .L325
 4850               	.LM464:
 4851 1642 6081      		ld r22,Z
 4852 1644 7181      		ldd r23,Z+1
 4853               	.LVL520:
 4854 1646 6115      		cp r22,__zero_reg__
 4855 1648 7105      		cpc r23,__zero_reg__
 4856 164a 01F0      		breq .L326
 4857 164c 4481      		ldd r20,Z+4
 4858 164e 5581      		ldd r21,Z+5
 4859 1650 0E94 0000 		call _ZN6String4copyEPKcj
 4860               	.LVL521:
 4861 1654 00C0      		rjmp .L325
 4862               	.LVL522:
 4863               	.L326:
 4864               	.LM465:
 4865 1656 0E94 0000 		call _ZN6String10invalidateEv
 4866               	.LVL523:
 4867               	.L325:
 4868               	.LM466:
 4869 165a CE01      		movw r24,r28
 4870               	.LVL524:
 4871               	/* epilogue start */
 4872 165c DF91      		pop r29
 4873 165e CF91      		pop r28
 4874 1660 0895      		ret
 4875               	.LFE99:
 4877               	.global	_ZN6StringC1ERKS_
 4879               	_ZN6StringC1ERKS_:
 4880               	.LFB62:
 4881               	.LM467:
 4882               	.LVL525:
 4883               	/* prologue: function */
 4884               	/* frame size = 0 */
 4885 1662 FC01      		movw r30,r24
 4886               	.LBB208:
 4887               	.LBB209:
 4888               	.LBB210:
 4889               	.LM468:
 4890 1664 1182      		std Z+1,__zero_reg__
 4891 1666 1082      		st Z,__zero_reg__
 4892               	.LM469:
 4893 1668 1382      		std Z+3,__zero_reg__
 4894 166a 1282      		std Z+2,__zero_reg__
 4895               	.LM470:
 4896 166c 1582      		std Z+5,__zero_reg__
 4897 166e 1482      		std Z+4,__zero_reg__
 4898               	.LBE210:
 4899               	.LBE209:
 4900               	.LM471:
 4901 1670 0E94 0000 		call _ZN6StringaSERKS_
 4902               	.LVL526:
 4903               	/* epilogue start */
 4904               	.LBE208:
 4905               	.LM472:
 4906 1674 0895      		ret
 4907               	.LFE62:
 4909               	.global	_ZN6StringC2ERKS_
 4911               	_ZN6StringC2ERKS_:
 4912               	.LFB61:
 4913               	.LM473:
 4914               	.LVL527:
 4915               	/* prologue: function */
 4916               	/* frame size = 0 */
 4917 1676 FC01      		movw r30,r24
 4918               	.LBB211:
 4919               	.LBB212:
 4920               	.LBB213:
 4921               	.LM474:
 4922 1678 1182      		std Z+1,__zero_reg__
 4923 167a 1082      		st Z,__zero_reg__
 4924               	.LM475:
 4925 167c 1382      		std Z+3,__zero_reg__
 4926 167e 1282      		std Z+2,__zero_reg__
 4927               	.LM476:
 4928 1680 1582      		std Z+5,__zero_reg__
 4929 1682 1482      		std Z+4,__zero_reg__
 4930               	.LBE213:
 4931               	.LBE212:
 4932               	.LM477:
 4933 1684 0E94 0000 		call _ZN6StringaSERKS_
 4934               	.LVL528:
 4935               	/* epilogue start */
 4936               	.LBE211:
 4937               	.LM478:
 4938 1688 0895      		ret
 4939               	.LFE61:
 4941               	.global	_ZN6StringD1Ev
 4943               	_ZN6StringD1Ev:
 4944               	.LFB92:
 4945               	.LM479:
 4946               	.LVL529:
 4947               	/* prologue: function */
 4948               	/* frame size = 0 */
 4949 168a FC01      		movw r30,r24
 4950               	.LM480:
 4951 168c 8081      		ld r24,Z
 4952 168e 9181      		ldd r25,Z+1
 4953               	.LVL530:
 4954 1690 0E94 0000 		call free
 4955               	.LVL531:
 4956               	/* epilogue start */
 4957               	.LM481:
 4958 1694 0895      		ret
 4959               	.LFE92:
 4961               	.global	_ZN6StringD2Ev
 4963               	_ZN6StringD2Ev:
 4964               	.LFB91:
 4965               	.LM482:
 4966               	.LVL532:
 4967               	/* prologue: function */
 4968               	/* frame size = 0 */
 4969 1696 FC01      		movw r30,r24
 4970               	.LM483:
 4971 1698 8081      		ld r24,Z
 4972 169a 9181      		ldd r25,Z+1
 4973               	.LVL533:
 4974 169c 0E94 0000 		call free
 4975               	.LVL534:
 4976               	/* epilogue start */
 4977               	.LM484:
 4978 16a0 0895      		ret
 4979               	.LFE91:
 4981               		.lcomm _ZZN6StringixEjE19dummy_writable_char,1
 5718               	.Letext0:
DEFINED SYMBOLS
                            *ABS*:00000000 WString.cpp
C:\Users\OPENMA~1\AppData\Local\Temp/ccC7ppGC.s:2      *ABS*:0000003f __SREG__
C:\Users\OPENMA~1\AppData\Local\Temp/ccC7ppGC.s:3      *ABS*:0000003e __SP_H__
C:\Users\OPENMA~1\AppData\Local\Temp/ccC7ppGC.s:4      *ABS*:0000003d __SP_L__
C:\Users\OPENMA~1\AppData\Local\Temp/ccC7ppGC.s:5      *ABS*:00000034 __CCP__
C:\Users\OPENMA~1\AppData\Local\Temp/ccC7ppGC.s:6      *ABS*:00000000 __tmp_reg__
C:\Users\OPENMA~1\AppData\Local\Temp/ccC7ppGC.s:7      *ABS*:00000001 __zero_reg__
C:\Users\OPENMA~1\AppData\Local\Temp/ccC7ppGC.s:20     .text:00000000 _ZNK6String6charAtEj
C:\Users\OPENMA~1\AppData\Local\Temp/ccC7ppGC.s:58     .text:00000022 _ZN6String9setCharAtEjc
C:\Users\OPENMA~1\AppData\Local\Temp/ccC7ppGC.s:86     .text:0000003c _ZN6StringixEj
                             .bss:00000000 _ZZN6StringixEjE19dummy_writable_char
C:\Users\OPENMA~1\AppData\Local\Temp/ccC7ppGC.s:129    .text:00000066 _ZNK6StringixEj
C:\Users\OPENMA~1\AppData\Local\Temp/ccC7ppGC.s:163    .text:00000088 _ZN6String7replaceEcc
C:\Users\OPENMA~1\AppData\Local\Temp/ccC7ppGC.s:202    .text:000000a6 _ZNK6String8toDoubleEv
C:\Users\OPENMA~1\AppData\Local\Temp/ccC7ppGC.s:231    .text:000000c0 _ZNK6String7toFloatEv
C:\Users\OPENMA~1\AppData\Local\Temp/ccC7ppGC.s:247    .text:000000c6 _ZNK6String5toIntEv
C:\Users\OPENMA~1\AppData\Local\Temp/ccC7ppGC.s:281    .text:000000e8 _ZN6String4trimEv
C:\Users\OPENMA~1\AppData\Local\Temp/ccC7ppGC.s:404    .text:00000194 _ZN6String11toUpperCaseEv
C:\Users\OPENMA~1\AppData\Local\Temp/ccC7ppGC.s:450    .text:000001b8 _ZN6String11toLowerCaseEv
C:\Users\OPENMA~1\AppData\Local\Temp/ccC7ppGC.s:496    .text:000001dc _ZNK6String16equalsIgnoreCaseERKS_
C:\Users\OPENMA~1\AppData\Local\Temp/ccC7ppGC.s:588    .text:0000024c _ZN6String6removeEjj
C:\Users\OPENMA~1\AppData\Local\Temp/ccC7ppGC.s:664    .text:000002aa _ZN6String6removeEj
C:\Users\OPENMA~1\AppData\Local\Temp/ccC7ppGC.s:682    .text:000002b4 _ZNK6String8getBytesEPhjj
C:\Users\OPENMA~1\AppData\Local\Temp/ccC7ppGC.s:762    .text:0000030e _ZNK6String11lastIndexOfERKS_j
C:\Users\OPENMA~1\AppData\Local\Temp/ccC7ppGC.s:889    .text:000003aa _ZNK6String11lastIndexOfERKS_
C:\Users\OPENMA~1\AppData\Local\Temp/ccC7ppGC.s:917    .text:000003c6 _ZNK6String7indexOfERKS_j
C:\Users\OPENMA~1\AppData\Local\Temp/ccC7ppGC.s:976    .text:00000402 _ZNK6String7indexOfERKS_
C:\Users\OPENMA~1\AppData\Local\Temp/ccC7ppGC.s:994    .text:0000040c _ZNK6String11lastIndexOfEcj
C:\Users\OPENMA~1\AppData\Local\Temp/ccC7ppGC.s:1082   .text:00000476 _ZNK6String11lastIndexOfEc
C:\Users\OPENMA~1\AppData\Local\Temp/ccC7ppGC.s:1103   .text:00000486 _ZNK6String7indexOfEcj
C:\Users\OPENMA~1\AppData\Local\Temp/ccC7ppGC.s:1159   .text:000004be _ZNK6String7indexOfEc
C:\Users\OPENMA~1\AppData\Local\Temp/ccC7ppGC.s:1177   .text:000004c8 _ZNK6String8endsWithERKS_
C:\Users\OPENMA~1\AppData\Local\Temp/ccC7ppGC.s:1228   .text:0000050c _ZNK6String6equalsEPKc
C:\Users\OPENMA~1\AppData\Local\Temp/ccC7ppGC.s:1293   .text:00000552 _ZNK6String9compareToERKS_
C:\Users\OPENMA~1\AppData\Local\Temp/ccC7ppGC.s:1377   .text:000005b8 _ZNK6StringgeERKS_
C:\Users\OPENMA~1\AppData\Local\Temp/ccC7ppGC.s:1398   .text:000005c8 _ZNK6StringleERKS_
C:\Users\OPENMA~1\AppData\Local\Temp/ccC7ppGC.s:1421   .text:000005da _ZNK6StringgtERKS_
C:\Users\OPENMA~1\AppData\Local\Temp/ccC7ppGC.s:1444   .text:000005ec _ZNK6StringltERKS_
C:\Users\OPENMA~1\AppData\Local\Temp/ccC7ppGC.s:1464   .text:000005fa _ZNK6String6equalsERKS_
C:\Users\OPENMA~1\AppData\Local\Temp/ccC7ppGC.s:1504   .text:00000626 _ZNK6String10startsWithERKS_j
C:\Users\OPENMA~1\AppData\Local\Temp/ccC7ppGC.s:1558   .text:0000066c _ZNK6String10startsWithERKS_
C:\Users\OPENMA~1\AppData\Local\Temp/ccC7ppGC.s:1593   .text:00000692 _ZN6String12changeBufferEj
C:\Users\OPENMA~1\AppData\Local\Temp/ccC7ppGC.s:1646   .text:000006c6 _ZN6String7replaceERKS_S1_
C:\Users\OPENMA~1\AppData\Local\Temp/ccC7ppGC.s:2011   .text:000008d0 _ZN6String7reserveEj
C:\Users\OPENMA~1\AppData\Local\Temp/ccC7ppGC.s:2060   .text:00000908 _ZN6String6concatEPK19__FlashStringHelper
C:\Users\OPENMA~1\AppData\Local\Temp/ccC7ppGC.s:2142   .text:0000096c _ZN6String6concatEPKcj
C:\Users\OPENMA~1\AppData\Local\Temp/ccC7ppGC.s:2220   .text:000009c6 _ZN6String6concatEd
C:\Users\OPENMA~1\AppData\Local\Temp/ccC7ppGC.s:2288   .text:00000a28 _ZN6String6concatEf
C:\Users\OPENMA~1\AppData\Local\Temp/ccC7ppGC.s:2356   .text:00000a8a _ZN6String6concatEm
C:\Users\OPENMA~1\AppData\Local\Temp/ccC7ppGC.s:2423   .text:00000aee _ZN6String6concatEl
C:\Users\OPENMA~1\AppData\Local\Temp/ccC7ppGC.s:2490   .text:00000b52 _ZN6String6concatEj
C:\Users\OPENMA~1\AppData\Local\Temp/ccC7ppGC.s:2557   .text:00000bb4 _ZN6String6concatEi
C:\Users\OPENMA~1\AppData\Local\Temp/ccC7ppGC.s:2624   .text:00000c16 _ZN6String6concatEh
C:\Users\OPENMA~1\AppData\Local\Temp/ccC7ppGC.s:2686   .text:00000c6e _ZN6String6concatEc
C:\Users\OPENMA~1\AppData\Local\Temp/ccC7ppGC.s:2723   .text:00000c94 _ZN6String6concatEPKc
C:\Users\OPENMA~1\AppData\Local\Temp/ccC7ppGC.s:2755   .text:00000cb4 _ZN6String6concatERKS_
C:\Users\OPENMA~1\AppData\Local\Temp/ccC7ppGC.s:2777   .text:00000cc4 _ZN6String10invalidateEv
C:\Users\OPENMA~1\AppData\Local\Temp/ccC7ppGC.s:2812   .text:00000ce8 _ZplRK15StringSumHelperPK19__FlashStringHelper
C:\Users\OPENMA~1\AppData\Local\Temp/ccC7ppGC.s:2847   .text:00000d0a _ZplRK15StringSumHelperd
C:\Users\OPENMA~1\AppData\Local\Temp/ccC7ppGC.s:2882   .text:00000d2c _ZplRK15StringSumHelperf
C:\Users\OPENMA~1\AppData\Local\Temp/ccC7ppGC.s:2917   .text:00000d4e _ZplRK15StringSumHelperm
C:\Users\OPENMA~1\AppData\Local\Temp/ccC7ppGC.s:2952   .text:00000d70 _ZplRK15StringSumHelperl
C:\Users\OPENMA~1\AppData\Local\Temp/ccC7ppGC.s:2987   .text:00000d92 _ZplRK15StringSumHelperj
C:\Users\OPENMA~1\AppData\Local\Temp/ccC7ppGC.s:3022   .text:00000db4 _ZplRK15StringSumHelperi
C:\Users\OPENMA~1\AppData\Local\Temp/ccC7ppGC.s:3057   .text:00000dd6 _ZplRK15StringSumHelperh
C:\Users\OPENMA~1\AppData\Local\Temp/ccC7ppGC.s:3092   .text:00000df8 _ZplRK15StringSumHelperc
C:\Users\OPENMA~1\AppData\Local\Temp/ccC7ppGC.s:3127   .text:00000e1a _ZplRK15StringSumHelperPKc
C:\Users\OPENMA~1\AppData\Local\Temp/ccC7ppGC.s:3177   .text:00000e52 _ZplRK15StringSumHelperRK6String
C:\Users\OPENMA~1\AppData\Local\Temp/ccC7ppGC.s:3218   .text:00000e7e _ZN6String4copyEPK19__FlashStringHelperj
C:\Users\OPENMA~1\AppData\Local\Temp/ccC7ppGC.s:3271   .text:00000ec0 _ZN6StringaSEPK19__FlashStringHelper
C:\Users\OPENMA~1\AppData\Local\Temp/ccC7ppGC.s:3321   .text:00000efa _ZN6StringC1EPK19__FlashStringHelper
C:\Users\OPENMA~1\AppData\Local\Temp/ccC7ppGC.s:3353   .text:00000f0e _ZN6StringC2EPK19__FlashStringHelper
C:\Users\OPENMA~1\AppData\Local\Temp/ccC7ppGC.s:3385   .text:00000f22 _ZN6String4copyEPKcj
C:\Users\OPENMA~1\AppData\Local\Temp/ccC7ppGC.s:3438   .text:00000f64 _ZN6StringC1EPKc
C:\Users\OPENMA~1\AppData\Local\Temp/ccC7ppGC.s:3488   .text:00000f96 _ZN6StringC2EPKc
C:\Users\OPENMA~1\AppData\Local\Temp/ccC7ppGC.s:3538   .text:00000fc8 _ZN6StringaSEPKc
C:\Users\OPENMA~1\AppData\Local\Temp/ccC7ppGC.s:3584   .text:00000ffa _ZN6StringC1Edh
C:\Users\OPENMA~1\AppData\Local\Temp/ccC7ppGC.s:3657   .text:0000105a _ZN6StringC2Edh
C:\Users\OPENMA~1\AppData\Local\Temp/ccC7ppGC.s:3730   .text:000010ba _ZN6StringC1Efh
C:\Users\OPENMA~1\AppData\Local\Temp/ccC7ppGC.s:3803   .text:0000111a _ZN6StringC2Efh
C:\Users\OPENMA~1\AppData\Local\Temp/ccC7ppGC.s:3876   .text:0000117a _ZN6StringC1Emh
C:\Users\OPENMA~1\AppData\Local\Temp/ccC7ppGC.s:3951   .text:000011dc _ZN6StringC2Emh
C:\Users\OPENMA~1\AppData\Local\Temp/ccC7ppGC.s:4026   .text:0000123e _ZN6StringC1Elh
C:\Users\OPENMA~1\AppData\Local\Temp/ccC7ppGC.s:4101   .text:000012a0 _ZN6StringC2Elh
C:\Users\OPENMA~1\AppData\Local\Temp/ccC7ppGC.s:4176   .text:00001302 _ZN6StringC1Ejh
C:\Users\OPENMA~1\AppData\Local\Temp/ccC7ppGC.s:4251   .text:00001362 _ZN6StringC2Ejh
C:\Users\OPENMA~1\AppData\Local\Temp/ccC7ppGC.s:4326   .text:000013c2 _ZN6StringC1Eih
C:\Users\OPENMA~1\AppData\Local\Temp/ccC7ppGC.s:4401   .text:00001422 _ZN6StringC2Eih
C:\Users\OPENMA~1\AppData\Local\Temp/ccC7ppGC.s:4476   .text:00001482 _ZN6StringC1Ehh
C:\Users\OPENMA~1\AppData\Local\Temp/ccC7ppGC.s:4552   .text:000014e4 _ZN6StringC2Ehh
C:\Users\OPENMA~1\AppData\Local\Temp/ccC7ppGC.s:4628   .text:00001546 _ZN6StringC1Ec
C:\Users\OPENMA~1\AppData\Local\Temp/ccC7ppGC.s:4679   .text:00001576 _ZN6StringC2Ec
C:\Users\OPENMA~1\AppData\Local\Temp/ccC7ppGC.s:4734   .text:000015a6 _ZNK6String9substringEjj
C:\Users\OPENMA~1\AppData\Local\Temp/ccC7ppGC.s:4836   .text:00001634 _ZN6StringaSERKS_
C:\Users\OPENMA~1\AppData\Local\Temp/ccC7ppGC.s:4879   .text:00001662 _ZN6StringC1ERKS_
C:\Users\OPENMA~1\AppData\Local\Temp/ccC7ppGC.s:4911   .text:00001676 _ZN6StringC2ERKS_
C:\Users\OPENMA~1\AppData\Local\Temp/ccC7ppGC.s:4943   .text:0000168a _ZN6StringD1Ev
C:\Users\OPENMA~1\AppData\Local\Temp/ccC7ppGC.s:4963   .text:00001696 _ZN6StringD2Ev

UNDEFINED SYMBOLS
__do_copy_data
__do_clear_bss
atof
atol
isspace
memcpy
toupper
tolower
strncpy
strstr
strrchr
strchr
strcmp
strncmp
realloc
strcpy
memmove
strlen_P
strcpy_P
dtostrf
ultoa
ltoa
utoa
itoa
free
